(dp0
S'730 FOUNTAIN ST N CAMBRIDGE Canada'
p1
(F43.4068694
F-80.375866
tp2
sS'20 ERB ST W WATERLOO Canada'
p3
(F43.4653344
F-80.5239079
tp4
sS'151 KING ST W KITCHENER Canada'
p5
(F43.450679
F-80.491929
tp6
sS'99 SEAGRAM DR WATERLOO Canada'
p7
(F43.4701128
F-80.53234859999999
tp8
sS'E - 1400 OTTAWA ST S KITCHENER Canada'
p9
(F43.4156309
F-80.515221
tp10
sS'150 FREDERICK ST KITCHENER Canada'
p11
(F43.4525852
F-80.4848191
tp12
sS'9 - 901 VICTORIA ST N N KITCHENER Canada'
p13
(F43.463445
F-80.464816
tp14
sS'221 QUEEN ST S KITCHENER Canada'
p15
(F43.4472289
F-80.49140489999999
tp16
sS'80 YOUNG ST KITCHENER Canada'
p17
(F43.45267
F-80.491086
tp18
sS'5 - 258 KING ST N waterloo Canada'
p19
(F43.4770643
F-80.5247756
tp20
sS'4 - 366 HESPELER RD CAMBRIDGE Canada'
p21
(F43.3916254
F-80.3236034
tp22
sS'103 KING ST W KITCHENER Canada'
p23
(F43.4504427
F-80.4910563
tp24
sS'1305 BISHOP ST CAMBRIDGE Canada'
p25
(F43.395318
F-80.326511
tp26
sS'125 WATER ST N KITCHENER Canada'
p27
(F43.4551571
F-80.4919172
tp28
sS'550 KING ST N N WATERLOO Canada'
p29
(F43.4977272
F-80.52832579999999
tp30
sS'605 LAURELWOOD DR WATERLOO Canada'
p31
(F43.471538
F-80.592157
tp32
sS'640 TRICO DR CAMBRIDGE Canada'
p33
(F43.40408300000001
F-80.339328
tp34
sS'475 MAIN ST CAMBRIDGE Canada'
p35
(F43.3576613
F-80.2893704
tp36
sS'94 BRIDGEPORT RD E E WATERLOO Canada'
p37
(F43.4698791
F-80.515248
tp38
sS'338 WATERLOO ST NEW HAMBURG Canada'
p39
(F43.3857595
F-80.7124098
tp40
sS'3 - 1120 VICTORIA ST N KITCHENER Canada'
p41
(F43.4668143
F-80.4586875
tp42
sS'99 REGINA ST S waterloo Canada'
p43
(F43.4628615
F-80.52090179999999
tp44
sS'58 QUEEN ST S KITCHENER Canada'
p45
(F43.4491543
F-80.4899092
tp46
sS'104 - 141 WHITNEY PL. KITCENER Canada'
p47
(F43.44144499999999
F-80.4885757
tp48
sS'31 CAROLINE ST N WATERLOO Canada'
p49
(F43.465426
F-80.528111
tp50
sS'22 MOCKINGBIRD DR ELMIRA Canada'
p51
(F43.5871984
F-80.5735675
tp52
sS'403 HIGHLAND RD W KITCHENER Canada'
p53
(F43.4369558
F-80.51151209999999
tp54
sS'1000 VICTORIA ST N KITCHENER Canada'
p55
(F43.4655758
F-80.4619258
tp56
sS'327 - 355 HESPELER RD CAMBRIDGE Canada'
p57
(F43.39311499999999
F-80.3196776
tp58
sS'995 ERBSVILLE RD WOOLWICH Canada'
p59
(F43.485101
F-80.624008
tp60
sS'1333 WEBER ST E KITCENER Canada'
p61
(F43.4328528
F-80.44287609999999
tp62
sS'42 PINEBUSH RD CAMBRIDGE Canada'
p63
(F43.4087468
F-80.3243174
tp64
sS'65 UNIVERSITY AVE E WATERLOO Canada'
p65
(F43.4774197
F-80.5204428
tp66
sS'220 KING ST N WATERLOO Canada'
p67
(F43.4752375
F-80.5243892
tp68
sS'150 UNIVERSITY AVE W WATERLOO Canada'
p69
(F43.4729458
F-80.5355568
tp70
sS'80 MCGEE AVE KITCHENER Canada'
p71
(F43.454385
F-80.43594499999999
tp72
sS'46 LANARK CRES KITCHENER Canada'
p73
(F43.42435469999999
F-80.5354443
tp74
sS'75 UNIVERISTY AVENUE W WATERLOO Canada'
p75
(F43.4743681
F-80.528046
tp76
sS'431 HIGHLAND RD W KITCHENER Canada'
p77
(F43.4365591
F-80.5125602
tp78
sS'1187 FISCHER-HALLMAN RD KITCHENER Canada'
p79
(F43.4071676
F-80.5024756
tp80
sS'146 CHURCH ST W ELMIRA Canada'
p81
(F43.6015805
F-80.57517539999999
tp82
sS'164 BEVERLY ST CAMBRIDGE Canada'
p83
(F43.36586399999999
F-80.30637100000001
tp84
sS'15 - 900 JAMIESON PKY CAMBRIDGE Canada'
p85
(F43.4246734
F-80.2855609
tp86
sS'110 ERB ST W WATERLOO Canada'
p87
(F43.4632593
F-80.52874299999999
tp88
sS'650 LAURELWOOD DR WATERLOO Canada'
p89
(F43.4711106
F-80.5945424
tp90
sS'640 QUEEN ST S KITCHENER Canada'
p91
(F43.442774
F-80.4965153
tp92
sS'201 - 22 KING ST S WATERLOO Canada'
p93
(F43.4647024
F-80.521901
tp94
sS'900 FAIRWAY CRES KITCHENER Canada'
p95
(F43.44273
F-80.415021
tp96
sS'1920 SAWMILL RD CONESTOGO Canada'
p97
(F43.5415193
F-80.5062901
tp98
sS'3 - 200 LORRAINE AVE KITCHENER Canada'
p99
(F43.460775
F-80.44052099999999
tp100
sS'127 ELGIN ST N N CAMBRIDGE Canada'
p101
(F43.365516
F-80.298845
tp102
sS'40 ELDALE RD WOOLWICH Canada'
p103
(F43.6072195
F-80.5791066
tp104
sS'3 3 QUEEN ST E E CAMBRIDGE Canada'
p105
(F43.4313672
F-80.31067279999999
tp106
sS'278 WEBER ST E KITCHENER Canada'
p107
(F43.4465344
F-80.4721285
tp108
sS'400 MAIN ST E CAMBRIDGE Canada'
p109
(F43.3578755
F-80.2917312
tp110
sS'1055 FOUNTAIN ST N N CAMBRIDGE Canada'
p111
(F43.41896330000001
F-80.3692058
tp112
sS'4438 KING ST E KITCHENER Canada'
p113
(F43.4073085
F-80.3914327
tp114
sS'200 WATER ST S S CAMBRIDGE Canada'
p115
(F43.3453045
F-80.315241
tp116
sS'85 KING ST N WATERLOO Canada'
p117
(F43.467973
F-80.523383
tp118
sS'33 UNIVERSITY AVE E WATERLOO Canada'
p119
(F43.4767058
F-80.5228666
tp120
sS'66 FISHERMILLS RD CAMBRIDGE Canada'
p121
(F43.435514
F-80.315198
tp122
sS'4881 FOUNTAIN ST N WOOLWICH Canada'
p123
(F43.4596922
F-80.3858405
tp124
sS'4 UNIVERSITY AVE W ELMIRA Canada'
p125
(F43.5934523
F-80.5596912
tp126
sS"1000 ORR'S LAKE RD NORTH DUMFRIES Canada"
p127
(F43.3595181
F-80.36435929999999
tp128
sS'11 - 550 KING ST N WATERLOO Canada'
p129
(F43.4977272
F-80.52832579999999
tp130
sS'415 THE BOARDWALK WATERLOO Canada'
p131
(F43.43864629999999
F-80.56616149999999
tp132
sS'150 HOLIDAY INN DR CAMBRIDGE Canada'
p133
(F43.418324
F-80.324848
tp134
sS'5B - 150 UNIVERSITY AVE W WATERLOO Canada'
p135
(F43.4729458
F-80.5355568
tp136
sS'315 LINCOLN RD WATERLOO Canada'
p137
(F43.483655
F-80.50672
tp138
sS'1 - 560 HESPELER RD CAMBRIDGE Canada'
p139
(F43.4019308
F-80.32812799999999
tp140
sS'1302 MARYHILL RD MARYHILL Canada'
p141
(F43.5345654
F-80.39080419999999
tp142
sS'1 - 330 FARMERS MARKET RD WOOLWICH Canada'
p143
(F43.5108476
F-80.54969609999999
tp144
sS'13 - 255 KING ST N WATERLOO Canada'
p145
(F43.4773047
F-80.5257335
tp146
sS'130 - 600 LAURELWOOD DR WATERLOO Canada'
p147
(F43.4715521
F-80.59288939999999
tp148
sS'200 UNIVERSITY AVE W W WATERLOO Canada'
p149
(F43.4692268
F-80.5403525
tp150
sS'4A - 200 HIGHLAND RD W KITCHENER Canada'
p151
(F43.441121
F-80.50670099999999
tp152
sS'7632 REID WOODS DR WOOLWICH Canada'
p153
(F43.6151918
F-80.53979009999999
tp154
sS'162 HESPELER RD CAMBRIDGE Canada'
p155
(F43.38103359999999
F-80.32132200000001
tp156
sS'1229 KING ST N ST. JACOBS Canada'
p157
(F43.531825
F-80.555347
tp158
sS"1677 SNYDER'S RD E PETERSBURG Canada"
p159
(F43.4128489
F-80.60358339999999
tp160
sS'234 CLYDE RD CAMBRIDGE Canada'
p161
(F43.371037
F-80.2989255
tp162
sS'4 - 250 THOMPSON DR CAMBRIDGE Canada'
p163
(F43.409775
F-80.2960427
tp164
sS'9 - 255 KING ST N WATERLOO Canada'
p165
(F43.4773047
F-80.5257335
tp166
sS'50 YOUNG ST WATERLOO Canada'
p167
(F43.5367858
F-80.55281950000001
tp168
sS'10 DOLMAN ST BRESLAU Canada'
p169
(F43.4785835
F-80.4148479
tp170
sS'500 CONESTOGA BLVD CAMBRIDGE Canada'
p171
(F43.40055599999999
F-80.318473
tp172
sS'84 KING ST N WATERLOO Canada'
p173
(F43.4680417
F-80.5229389
tp174
sS'11 OTTAWA ST N N KITCHENER Canada'
p175
(F43.4420969
F-80.47045
tp176
sS'177 BISMARK DR CAMBRIDGE Canada'
p177
(F43.3706031
F-80.3360526
tp178
sS'38 - 170 UNIVERSITY AVE W WATERLOO Canada'
p179
(F43.4718401
F-80.53888069999999
tp180
sS'8 - 465 PHILLIP ST WATERLOO Canada'
p181
(F43.484427
F-80.5408376
tp182
sS'39 ARTHUR ST S ELMIRA Canada'
p183
(F43.599227
F-80.5579103
tp184
sS'397 MIDDLE ST CAMBRIDGE Canada'
p185
(F43.40001100000001
F-80.352898
tp186
sS'1095 WEBER ST E E KITCHENER Canada'
p187
(F43.4351408
F-80.44973019999999
tp188
sS'3B - 800  FRANKLIN BLVD CAMBRIDGE Canada'
p189
(F43.3797211
F-80.299713
tp190
sS'101 - 55 ERB ST E WATERLOO Canada'
p191
(F43.4655683
F-80.5188167
tp192
sS'3006 LOBSINGER LINE HEIDELBERG Canada'
p193
(F43.5202927
F-80.6196823
tp194
sS'510 DUTTON DR WATERLOO Canada'
p195
(F43.494597
F-80.538314
tp196
sS'1203 KING ST E CAMBRIDGE Canada'
p197
(F43.39219019999999
F-80.3508836
tp198
sS'500 DOON VALLEY DR KITCHENER Canada'
p199
(F43.394258
F-80.396175
tp200
sS'114B - 355 HESPELER RD CAMBRIDGE Canada'
p201
(F43.39311499999999
F-80.3196776
tp202
sS'100 - 180 KING ST S WATERLOO Canada'
p203
(F43.46077270000001
F-80.51925539999999
tp204
sS'951 HOMER WATSON BLVD KITCHENER Canada'
p205
(F43.4105697
F-80.4611108
tp206
sS'425 BINGEMAN CENTRE DR KITCHENER Canada'
p207
(F43.4725065
F-80.4500712
tp208
sS'811 BLEAMS RD KITCHENER Canada'
p209
(F43.404952
F-80.47969599999999
tp210
sS"14 QUEEN'S SQ CAMBRIDGE Canada"
p211
(F43.3586908
F-80.3172118
tp212
sS'9 - 645 WESTMOUNT RD E KITCHENER Canada'
p213
(F43.420944
F-80.503006
tp214
sS'155 LIVINGSTON BLVD BADEN Canada'
p215
(F43.4079134
F-80.6727683
tp216
sS'1381 KING ST N ST. JACOBS Canada'
p217
(F43.53827099999999
F-80.554306
tp218
sS'47 ERB ST W WATERLOO Canada'
p219
(F43.464582
F-80.524143
tp220
sS'105 - 340 HAGEY BLVD WATERLOO Canada'
p221
(F43.4791743
F-80.548333
tp222
sS'206 DUKE ST E KITCHENER Canada'
p223
(F43.4481171
F-80.4815532
tp224
sS'9 - 170 UNIVERSITY AVE W WATERLOO Canada'
p225
(F43.4718401
F-80.53888069999999
tp226
sS'140 UNIVERSITY AVE W WATERLOO Canada'
p227
(F43.4729971
F-80.53500679999999
tp228
sS'681 BELMONT AVE W KITCHENER Canada'
p229
(F43.4532488
F-80.5179876
tp230
sS'2 - 811 BARBARA CT CAMBRIDGE Canada'
p231
(F43.399939
F-80.34072499999999
tp232
sS'90 WESTMOUNT RD N WATERLOO Canada'
p233
(F43.4634019
F-80.5391092
tp234
sS'100 JAMIESON PKY CAMBRIDGE Canada'
p235
(F43.41734080000001
F-80.3087175
tp236
sS'8 - 255 KING ST N WATERLOO Canada'
p237
(F43.4773047
F-80.5257335
tp238
sS'68 POLLOCK AVE CAMBRIDGE Canada'
p239
(F43.3580572
F-80.3018326
tp240
sS'1 HESPELER RD CAMBRIDGE Canada'
p241
(F43.3741709
F-80.31810829999999
tp242
sS'125 KING ST W KITCHENER Canada'
p243
(F43.4503865
F-80.49173019999999
tp244
sS'740 WILLIAM ST CAMBRIDGE Canada'
p245
(F43.3970875
F-80.3560682
tp246
sS'3 - 425 HESPELER RD CAMBRIDGE Canada'
p247
(F43.3959579
F-80.3230402
tp248
sS'54 QUEEN ST N KITCHENER Canada'
p249
(F43.4521476
F-80.48747929999999
tp250
sS'97 CONCESSION ST CAMBRIDGE Canada'
p251
(F43.3545727
F-80.3073452
tp252
sS'101 - 305 KING ST W KITCHENER Canada'
p253
(F43.45153089999999
F-80.4950346
tp254
sS'16 WILLIAM ST W WATERLOO Canada'
p255
(F43.461635
F-80.521913
tp256
sS'1369 KING ST N ST. JACOBS Canada'
p257
(F43.5376317
F-80.5540358
tp258
sS'192 ACTIVA AVE KITCHENER Canada'
p259
(F43.4058163
F-80.51279319999999
tp260
sS'1 - 182 UNION ST NEW HAMBURG Canada'
p261
(F43.3793119
F-80.7128364
tp262
sS'200 DAVID BERGEY DRIVE KITCHENER Canada'
p263
(F43.4061686
F-80.5178092
tp264
sS'95 QUEEN ST S KITCHENER Canada'
p265
(F43.44862699999999
F-80.49022339999999
tp266
sS'21 21 MCKAY ST CAMBRIDGE Canada'
p267
(F43.3500859
F-80.3071437
tp268
sS'450 ERB ST W WATERLOO Canada'
p269
(F43.452243
F-80.555717
tp270
sS'6 - 480 HESPELER RD CAMBRIDGE Canada'
p271
(F43.3980952
F-80.3261879
tp272
sS'850 FOUNTAIN ST S S CAMBRIDGE Canada'
p273
(F43.3868299
F-80.3982499
tp274
sS'450 BERNAY DR WATERLOO Canada'
p275
(F43.4506389
F-80.5774764
tp276
sS'H - 500 CAN-AMERA PKY CAMBRIDGE Canada'
p277
(F43.4056165
F-80.2855354
tp278
sS'35 WEBER ST W KITCHENER Canada'
p279
(F43.452483
F-80.48968099999999
tp280
sS'45 BENJAMIN RD WOOLWICH Canada'
p281
(F43.5073669
F-80.5540487
tp282
sS'47 SCOTT ST KITCHENER Canada'
p283
(F43.449851
F-80.484802
tp284
sS'184 MAIN ST E CAMBRIDGE Canada'
p285
(F43.35725499999999
F-80.30761199999999
tp286
sS'28 CHURCH ST W ELMIRA Canada'
p287
(F43.6004701
F-80.5601283
tp288
sS'190 - 355 HESPELER RD CAMBRIDGE Canada'
p289
(F43.39311499999999
F-80.3196776
tp290
sS'655 ERB ST W WATERLOO Canada'
p291
(F43.4457029
F-80.57190600000001
tp292
sS'30 LIGHT DR CAMBRIDGE Canada'
p293
(F43.3892917
F-80.2829369
tp294
sS'1333 KING ST E KITCHENER Canada'
p295
(F43.440062
F-80.46782999999999
tp296
sS'24 SNYDER AVE S ELMIRA Canada'
p297
(F43.5958722
F-80.5639425
tp298
sS'159 HIGHLAND RD E KITCHENER Canada'
p299
(F43.4387455
F-80.4930391
tp300
sS'1 - 91 QUEEN ST S KITCHENER Canada'
p301
(F43.4489038
F-80.4900557
tp302
sS'1 - 200 LORRAINE AVE KITCHENER Canada'
p303
(F43.460775
F-80.44052099999999
tp304
sS'366 VICTORIA ST N KITCHENER Canada'
p305
(F43.4589406
F-80.4823215
tp306
sS'500 FAIRWAY RD S KITCHENER Canada'
p307
(F43.4209964
F-80.4469673
tp308
sS'40 SHIRLEY AVE KITCHENER Canada'
p309
(F43.4658577
F-80.46448389999999
tp310
sS'270 QUICKFALL DR WATERLOO Canada'
p311
(F43.481922
F-80.50764699999999
tp312
sS'1 - 210 LORRAINE AVE KITCHENER Canada'
p313
(F43.46102399999999
F-80.440348
tp314
sS'101 - 301 KING ST E KITCHENER Canada'
p315
(F43.4475684
F-80.4843025
tp316
sS'455 UNIVERSITY AVE W KITCHENER Canada'
p317
(F43.4410092
F-80.5465478
tp318
sS'197 FREDERICK ST KITCHENER Canada'
p319
(F43.4532093
F-80.48211959999999
tp320
sS'170 - 235 KING ST E KITCHENER Canada'
p321
(F43.4480997
F-80.48554539999999
tp322
sS'12 OXFORD ST CAMBRIDGE Canada'
p323
(F43.366471
F-80.313242
tp324
sS'4 - 1400 WEBER ST E KITCHENER Canada'
p325
(F43.4331827
F-80.4390667
tp326
sS'61,62 - 75 KING ST S WATERLOO Canada'
p327
(F43.46360980000001
F-80.5235285
tp328
sS'305  NORTHFIELD DR E WATERLOO Canada'
p329
(F43.51444499999999
F-80.51829099999999
tp330
sS'120 CALLAWAY DR CAMBRIDGE Canada'
p331
(F43.4452095
F-80.307037
tp332
sS'11 - 1120 VICTORIA ST N KITCHENER Canada'
p333
(F43.4668143
F-80.4586875
tp334
sS'167 THALER AVE KITCHENER Canada'
p335
(F43.4339369
F-80.4309786
tp336
sS'7 - 160 UNIVERSITY AVE W WATERLOO Canada'
p337
(F43.472285
F-80.5380519
tp338
sS'11 - 101 HAZELGLEN DR KITCHENER Canada'
p339
(F43.4399243
F-80.5270231
tp340
sS'236 KING ST E KITCHENER Canada'
p341
(F43.448314
F-80.48511599999999
tp342
sS'102 - 325 MAX BECKER DR KITCHENER Canada'
p343
(F43.4048861
F-80.50085969999999
tp344
sS"1700 QUEEN'S BLVD KITCHENER Canada"
p345
(F43.4274383
F-80.5276236
tp346
sS'34 OSBORNE ST CAMBRIDGE Canada'
p347
(F43.349649
F-80.32714899999999
tp348
sS'2-3 - 25 STRUCK CRT CAMBRIDGE Canada'
p349
(F43.4114055
F-80.31482009999999
tp350
sS'26 AINSLIE ST S CAMBRIDGE Canada'
p351
(F43.3578759
F-80.313869
tp352
sS'12 - 373 BRIDGE ST W WATERLOO Canada'
p353
(F43.4956711
F-80.5013463
tp354
sS'182 PINEBUSH RD CAMBRIDGE Canada'
p355
(F43.41164
F-80.31178600000001
tp356
sS'276 - 355 HESPELER RD CAMBRIDGE Canada'
p357
(F43.39311499999999
F-80.3196776
tp358
sS'700 CORONATION BLVD CAMBRIDGE Canada'
p359
(F43.3780577
F-80.3280826
tp360
sS'1241 OTTAWA ST S KITCHENER Canada'
p361
(F43.418351
F-80.50846899999999
tp362
sS'390 COURTLAND AVE E KITCHENER Canada'
p363
(F43.43817900000001
F-80.478872
tp364
sS'506 HESPELER RD CAMBRIDGE Canada'
p365
(F43.3993181
F-80.3259961
tp366
sS'83 ERB ST W WATERLOO Canada'
p367
(F43.4633165
F-80.527197
tp368
sS'210 - 265 KING ST E KITCHENER Canada'
p369
(F43.447716
F-80.484853
tp370
sS'651 ERB ST W WATERLOO Canada'
p371
(F43.4458881
F-80.5714793
tp372
sS'275 WATER ST N CAMBRIDGE Canada'
p373
(F43.3722927
F-80.31780719999999
tp374
sS'223 LOUISA ST KITCHENER Canada'
p375
(F43.457928
F-80.494607
tp376
sS'200 HOLIDAY INN DR CAMBRIDGE Canada'
p377
(F43.416504
F-80.32154299999999
tp378
sS'6A - 140 UNIVERSITY AVE W WATERLOO Canada'
p379
(F43.4729971
F-80.53500679999999
tp380
sS'95 KING ST S WATERLOO Canada'
p381
(F43.4630965
F-80.522174
tp382
sS'59 - 75 KING ST S WATERLOO Canada'
p383
(F43.46360980000001
F-80.5235285
tp384
sS'1 - 283 NORTHFIELD DR E WATERLOO Canada'
p385
(F43.511547
F-80.521412
tp386
sS'1054 SHELLARD RD NORTH DUMFRIES Canada'
p387
(F43.345769
F-80.2466642
tp388
sS'1668 KING ST E KITCHENER Canada'
p389
(F43.438281
F-80.4614419
tp390
sS'121 UNION ST E WATERLOO Canada'
p391
(F43.463106
F-80.510432
tp392
sS'1028 QUEEN ST NEW DUNDEE Canada'
p393
(F43.3443763
F-80.5342896
tp394
sS'30 SOUTHWOOD DR CAMBRIDGE Canada'
p395
(F43.349066
F-80.33688099999999
tp396
sS'2282 QUEEN ST PETERSBURG Canada'
p397
(F43.3895422
F-80.5804002
tp398
sS'118 BARNSWALLOW DR ELMIRA Canada'
p399
(F43.5934775
F-80.5779201
tp400
sS'115 WELLINGTON ST CAMBRIDGE Canada'
p401
(F43.3641772
F-80.30993289999999
tp402
sS'190 DAVID BERGEY DR KITCHENER Canada'
p403
(F43.4066959
F-80.5185868
tp404
sS'4 - 2 KING ST N WATERLOO Canada'
p405
(F43.4654191
F-80.5220724
tp406
sS'296 FAIRWAY RD S KITCHENER Canada'
p407
(F43.4216074
F-80.4418792
tp408
sS'537 FREDERICK ST KITCHENER Canada'
p409
(F43.4591959
F-80.4687117
tp410
sS'1 - 321 WEBER ST N WATERLOO Canada'
p411
(F43.481037
F-80.523163
tp412
sS'1500 HIGHLAND RD W KITCHENER Canada'
p413
(F43.4235351
F-80.55329850000001
tp414
sS'150  - VICTORIA ST S KITCHENER Canada'
p415
(F43.449062
F-80.5020122
tp416
sS'2 ARTHUR ST S ELMIRA Canada'
p417
(F43.5998384
F-80.5580526
tp418
sS'16 QUEEN ST W CAMBRIDGE Canada'
p419
(F43.4308732
F-80.3112024
tp420
sS'58 BEECH AVE CAMBRIDGE Canada'
p421
(F43.4267218
F-80.3169771
tp422
sS'878 WEBER ST N WOOLWICH Canada'
p423
(F43.5118206
F-80.55437359999999
tp424
sS'210 PINEBUSH RD CAMBRIDGE Canada'
p425
(F43.411948
F-80.3092705
tp426
sS'144 SOUTH FIELD DR WOOLWICH Canada'
p427
(F43.58619119999999
F-80.543623
tp428
sS'845 WEBER ST N Woolwich Canada'
p429
(F43.508984
F-80.557858
tp430
sS'A - 188 HIGHLAND RD W KITCHENER Canada'
p431
(F43.440903
F-80.505832
tp432
sS'592 VICTORIA ST S KITCHENER Canada'
p433
(F43.440999
F-80.51749000000001
tp434
sS'1 QUEEN ST N KITCHENER Canada'
p435
(F43.450044
F-80.488716
tp436
sS'787 KING ST W KITCHENER Canada'
p437
(F43.45584789999999
F-80.5084061
tp438
sS'111 DUKE ST W KITCHENER Canada'
p439
(F43.4521546
F-80.4915309
tp440
sS'30 WATER ST S CAMBRIDGE Canada'
p441
(F43.3571861
F-80.3154194
tp442
sS'120 - 10 CHURCH ST W ELMIRA Canada'
p443
(F43.6002028
F-80.5584295
tp444
sS'245 EDGEHILL DR KITCHENER Canada'
p445
(F43.405193
F-80.3957842
tp446
sS'1624 FRANKLIN BLVD CAMBRIDGE Canada'
p447
(F43.4253161
F-80.31028750000002
tp448
sS'170 ERB ST W WATERLOO Canada'
p449
(F43.4618766
F-80.5335207
tp450
sS'189 MOUNTAIN LAUREL CRES Kitchener Canada'
p451
(F43.404364
F-80.516891
tp452
sS'110 - 1515 KING ST E CAMBRIDGE Canada'
p453
(F43.390218
F-80.345792
tp454
sS'2 - 1120 VICTORIA ST N KITCHENER Canada'
p455
(F43.4668143
F-80.4586875
tp456
sS'1 - 195 FRANKLIN BLVD CAMBRIDGE Canada'
p457
(F43.35365119999999
F-80.2881613
tp458
sS'11 CENTRE STREET ELMIRA Canada'
p459
(F43.59818629999999
F-80.5551531
tp460
sS'24 KING ST N WATERLOO Canada'
p461
(F43.4659014
F-80.5225785
tp462
sS'36 LANCASTER ST W KITCHENER Canada'
p463
(F43.4597043
F-80.4827497
tp464
sS'715 OTTAWA ST S KITCHENER Canada'
p465
(F43.4248854
F-80.4833955
tp466
sS'7226 LINE 86 WALLENSTEIN Canada'
p467
(F43.5960725
F-80.62545539999999
tp468
sS'82 MARGARET AVE KITCHENER Canada'
p469
(F43.456892
F-80.489115
tp470
sS'222 CHANDLER DR KITCHENER Canada'
p471
(F43.4225421
F-80.4997861
tp472
sS'410 KING ST N N WATERLOO Canada'
p473
(F43.48475200000001
F-80.526275
tp474
sS'145 DEARBORN PL WATERLOO Canada'
p475
(F43.4872136
F-80.5137026
tp476
sS'427 BELMONT AVE W KITCHENER Canada'
p477
(F43.445549
F-80.513616
tp478
sS'1508 KING ST E E KITCHENER Canada'
p479
(F43.4391999
F-80.46451359999999
tp480
sS'1333 WEBER ST E KITCHENER Canada'
p481
(F43.4328528
F-80.44287609999999
tp482
sS'229 MYERS RD CAMBRIDGE Canada'
p483
(F43.3409659
F-80.2960451
tp484
sS'225 FRANKLIN BLVD CAMBRIDGE Canada'
p485
(F43.4066391
F-80.30707749999999
tp486
sS'305 ARTHUR ST S ELMIRA Canada'
p487
(F43.5838975
F-80.5616225
tp488
sS'102 - 305 KING ST W KITCHENER Canada'
p489
(F43.45153089999999
F-80.4950346
tp490
sS'2 - 48 QUEEN ST E CAMBRIDGE Canada'
p491
(F43.4321064
F-80.30905380000002
tp492
sS'221 LOUISA ST KITCHENER Canada'
p493
(F43.4581266
F-80.49479000000001
tp494
sS'75 DUNDAS ST CAMBRIDGE Canada'
p495
(F43.3586335
F-80.2914365
tp496
sS'4391 KING ST E KITCHENER Canada'
p497
(F43.40631
F-80.394824
tp498
sS'304 ST ANDREWS ST CAMBRIDGE Canada'
p499
(F43.34396599999999
F-80.3321349
tp500
sS'A - 565 KING ST N WATERLOO Canada'
p501
(F43.5010292
F-80.5333103
tp502
sS'3 - 435 KING ST N WATERLOO Canada'
p503
(F43.487867
F-80.529035
tp504
sS'1660 BLAIR RD CAMBRIDGE Canada'
p505
(F43.3839528
F-80.3852407
tp506
sS'1610 DUNBAR RD CAMBRIDGE Canada'
p507
(F43.390482
F-80.316103
tp508
sS'7 - 203 LESTER ST WATERLOO Canada'
p509
(F43.472243
F-80.53329649999999
tp510
sS'1105 FOUNTAIN ST N CAMBRIDGE Canada'
p511
(F43.4299632
F-80.3776942
tp512
sS'10 BARNSWALLOW DR ELMIRA Canada'
p513
(F43.5998123
F-80.57603089999999
tp514
sS'115 KING ST W KITCHENER Canada'
p515
(F43.4505101
F-80.49125409999999
tp516
sS'450 MAPLE GROVE RD CAMBRIDGE Canada'
p517
(F43.4246679
F-80.3819539
tp518
sS'9,10,11 - 1001 LANGS DR CAMBRIDGE Canada'
p519
(F43.4014774
F-80.3281903
tp520
sS'425 UNIVERSITY AVE E WATERLOO Canada'
p521
(F43.4896015
F-80.49186610000001
tp522
sS'406 HESPELER RD CAMBRIDGE Canada'
p523
(F43.39391
F-80.3240026
tp524
sS'425 KING ST N WATERLOO Canada'
p525
(F43.4866257
F-80.52765389999999
tp526
sS'55 UPPER CANADA DR KITCHENER Canada'
p527
(F43.3973524
F-80.4438194
tp528
sS'F - 500 CAN-AMERA PKY CAMBRIDGE Canada'
p529
(F43.4056165
F-80.2855354
tp530
sS'1855 NOTRE DAME DR ST. AGATHA Canada'
p531
(F43.4358703
F-80.6294192
tp532
sS'2 - 465 PHILLIP ST WATERLOO Canada'
p533
(F43.484427
F-80.5408376
tp534
sS'1 - 509 WILSON AVE KITCHENER Canada'
p535
(F43.4194574
F-80.4434754
tp536
sS'2 - 6 HOFFMAN ST KITCHENER Canada'
p537
(F43.4316989
F-80.4773613
tp538
sS'228 MARGARET AVE KITCHENER Canada'
p539
(F43.462663
F-80.49311399999999
tp540
sS'324 HIGHLAND RD W KITCHENER Canada'
p541
(F43.4392797
F-80.5101095
tp542
sS'3 - 280 VICTORIA ST N KITCHENER Canada'
p543
(F43.4578382
F-80.48503389999999
tp544
sS'10 PINEBUSH RD CAMBRIDGE Canada'
p545
(F43.40878290000001
F-80.3271688
tp546
sS'66 BRIDGEPORT RD E E WATERLOO Canada'
p547
(F43.4691798
F-80.51631119999999
tp548
sS'57 LODGE ST WATERLOO Canada'
p549
(F43.474261
F-80.521417
tp550
sS'B-19 - 1400 OTTAWA ST S KITCHENER Canada'
p551
(F43.4156309
F-80.515221
tp552
sS'7 - 900 FAIRWAY CRES KITCHENER Canada'
p553
(F43.44273
F-80.415021
tp554
sS'22 PINEBUSH RD CAMBRIDGE Canada'
p555
(F43.4106872
F-80.326923
tp556
sS'F12 - 550 KING ST N WATERLOO Canada'
p557
(F43.4977272
F-80.52832579999999
tp558
sS'1 - 112 ORIOLE PKY ELMIRA Canada'
p559
(F43.5892382
F-80.57285360000002
tp560
sS'F8 - 550 KING ST N WATERLOO Canada'
p561
(F43.4977272
F-80.52832579999999
tp562
sS'600 WEBER ST N WATERLOO Canada'
p563
(F43.5000453
F-80.5503809
tp564
sS'11 WESTWOOD DR KITCHENER Canada'
p565
(F43.446074
F-80.523549
tp566
sS'2 - 175 BORDEN AVE S KITCENER Canada'
p567
(F43.4393982
F-80.4771892
tp568
sS'15 FIRST ST E E ELMIRA Canada'
p569
(F43.5918481
F-80.5575109
tp570
sS'406 KING ST E CAMBRIDGE Canada'
p571
(F43.3976535
F-80.3622664
tp572
sS'12 SHADE ST CAMBRIDGE Canada'
p573
(F43.35909119999999
F-80.30931740000001
tp574
sS'A201 - 1595 VICTORIA ST N KITCHENER Canada'
p575
(F43.4730075
F-80.4349163
tp576
sS'12 - 465 PHILLIP ST WATERLOO Canada'
p577
(F43.484427
F-80.5408376
tp578
sS'D - 169 LEXINGTON CRT WATERLOO Canada'
p579
(F43.488888
F-80.5154357
tp580
sS'130 CEDAR ST CAMBRIDGE Canada'
p581
(F43.35174869999999
F-80.3278622
tp582
sS'3 - 150 WISSLER RD WATERLOO Canada'
p583
(F43.505171
F-80.524968
tp584
sS'685 MYERS RD CAMBRIDGE Canada'
p585
(F43.34453999999999
F-80.278233
tp586
sS'345 FRANKLIN BLVD CAMBRIDGE Canada'
p587
(F43.361521
F-80.28931
tp588
sS'30 NORTHFIELD DR E WATERLOO Canada'
p589
(F43.5028859
F-80.53123099999999
tp590
sS'1605 BLEAMS RD WILMOT Canada'
p591
(F43.3916846
F-80.5732685
tp592
sS'160 COURTLAND AVE E KITCHENER Canada'
p593
(F43.4425926
F-80.4867431
tp594
sS'1601 RIVER RD E KITCHENER Canada'
p595
(F43.428365
F-80.421381
tp596
sS'425 HESPELER RD CAMBRIDGE Canada'
p597
(F43.3959579
F-80.3230402
tp598
sS'56 REGINA ST N N WATERLOO Canada'
p599
(F43.4684574
F-80.5218448
tp600
sS'11 - 235 IRA NEEDLES BLVD KITCHENER Canada'
p601
(F43.4255117
F-80.55366339999999
tp602
sS'612 KING ST E KITCHENER Canada'
p603
(F43.4454789
F-80.4792738
tp604
sS'730 HESPELER RD CAMBRIDGE Canada'
p605
(F43.410382
F-80.328503
tp606
sS'1071 DUNDAS ST S S CAMBRIDGE Canada'
p607
(F43.348481
F-80.276095
tp608
sS'695 BLOCK LINE RD KITCHENER Canada'
p609
(F43.411221
F-80.498672
tp610
sS'416 HESPELER RD CAMBRIDGE Canada'
p611
(F43.3948743
F-80.3244635
tp612
sS'1 - 1373 VICTORIA ST N KITCHENER Canada'
p613
(F43.469626
F-80.445424
tp614
sS'200 KING ST N WATERLOO Canada'
p615
(F43.4745585
F-80.5241394
tp616
sS'41 - 75 KING ST S S WATERLOO Canada'
p617
(F43.46360980000001
F-80.5235285
tp618
sS'9 CONWAY DR KITCHENER Canada'
p619
(F43.447182
F-80.441839
tp620
sS'109 KING ST N WATERLOO Canada'
p621
(F43.4690362
F-80.52367939999999
tp622
sS'50 WESTMOUNT RD N N WATERLOO Canada'
p623
(F43.46174800000001
F-80.5374452
tp624
sS'13 - 720 WESTMOUNT RD E KITCHENER Canada'
p625
(F43.4172052
F-80.50116
tp626
sS'1 - 594 HESPELER RD CAMBRIDGE Canada'
p627
(F43.4045851
F-80.3270994
tp628
sS'19 QUEEN ST E E CAMBRIDGE Canada'
p629
(F43.4316535
F-80.3102325
tp630
sS'384 ARTHUR ST S ELMIRA Canada'
p631
(F43.576722
F-80.56385999999999
tp632
sS'71 ANN ST KITCHENER Canada'
p633
(F43.45989
F-80.470505
tp634
sS'1217 LOBSINGER LINE WOOLWICH Canada'
p635
(F43.516133
F-80.563998
tp636
sS'40 WEBER ST E KITCHENER Canada'
p637
(F43.4511037
F-80.48485199999999
tp638
sS'496 ALBERT ST WATERLOO Canada'
p639
(F43.4866475
F-80.54004090000001
tp640
sS'278 KING ST N WATERLOO Canada'
p641
(F43.477988
F-80.5249
tp642
sS'7 - 615 DAVENPORT RD WATERLOO Canada'
p643
(F43.5035509
F-80.5294753
tp644
sS'70 BRIDGEPORT RD E E WATERLOO Canada'
p645
(F43.47012
F-80.5163042
tp646
sS'878 WEBER ST N Woolwich Canada'
p647
(F43.5118206
F-80.55437359999999
tp648
sS'5190 AMENT LINE LINWOOD Canada'
p649
(F43.5814061
F-80.72819609999999
tp650
sS'530 COLUMBIA ST W WATERLOO Canada'
p651
(F43.4627804
F-80.5810667
tp652
sS'343 KING ST E KITCHENER Canada'
p653
(F43.4473361
F-80.483493
tp654
sS'1250 WEBER ST E KITCHENER Canada'
p655
(F43.434035
F-80.444504
tp656
sS'750 CORONATION BLVD CAMBRIDGE Canada'
p657
(F43.379699
F-80.33033979999999
tp658
sS'720 KING ST E CAMBRIDGE Canada'
p659
(F43.3955442
F-80.35806389999999
tp660
sS'61 ARTHUR ST S ELMIRA Canada'
p661
(F43.5983367
F-80.5585931
tp662
sS'130 CEDAR ST S CAMBRIDGE Canada'
p663
(F43.35174869999999
F-80.3278622
tp664
sS'4 - 148 PEEL ST NEW HAMBURG Canada'
p665
(F43.3772552
F-80.7092827
tp666
sS'2240 UNIVERSITY AVE E WATERLOO Canada'
p667
(F43.5152161
F-80.5134533
tp668
sS'185 KING ST S WATERLOO Canada'
p669
(F43.46015
F-80.519745
tp670
sS'150 WISSLER RD WATERLOO Canada'
p671
(F43.505171
F-80.524968
tp672
sS'B-1 - 1400 OTTAWA ST S KITCHENER Canada'
p673
(F43.4156309
F-80.515221
tp674
sS'1A - 561 HESPELER RD CAMBRIDGE Canada'
p675
(F43.4032795
F-80.3255049
tp676
sS'25 INDUSTRIAL DR ELMIRA Canada'
p677
(F43.5883989
F-80.5600917
tp678
sS'212 KING ST S WATERLOO Canada'
p679
(F43.45945709999999
F-80.51729619999999
tp680
sS'6 - 160 UNIVERSITY AVE W WATERLOO Canada'
p681
(F43.472285
F-80.5380519
tp682
sS'33 MAIN ST CAMBRIDGE Canada'
p683
(F43.3588161
F-80.3146431
tp684
sS'11 FIRST ST E ELMIRA Canada'
p685
(F43.5913366
F-80.5580743
tp686
sS'14 ARTHUR ST S ELMIRA Canada'
p687
(F43.5995861
F-80.55823130000002
tp688
sS'E - 1020 OTTAWA ST N KITCHENER Canada'
p689
(F43.4518269
F-80.4436882
tp690
sS'4220 KING ST E KITCHENER Canada'
p691
(F43.4107955
F-80.3987762
tp692
sS'42 ARTHUR ST S ELMIRA Canada'
p693
(F43.5989476
F-80.55872459999999
tp694
sS'140 UNIVERSITY AVENUE W WATERLOO Canada'
p695
(F43.4729971
F-80.53500679999999
tp696
sS'F - 70 VICTORIA ST N KITCHENER Canada'
p697
(F43.4544179
F-80.4956459
tp698
sS'107 - 80 KING ST S WATERLOO Canada'
p699
(F43.4634395
F-80.52155069999999
tp700
sS'100 THE BOARDWALK KITCHENER Canada'
p701
(F43.4329732
F-80.5582608
tp702
sS'325 LOUISA ST KITCHENER Canada'
p703
(F43.4595812
F-80.4900248
tp704
sS'165 FISHER MILLS RD CAMBRIDGE Canada'
p705
(F43.435757
F-80.3200899
tp706
sS'58 FREDERICK ST KITCHENER Canada'
p707
(F43.4503759
F-80.4869798
tp708
sS'710 MYERS RD CAMBRIDGE Canada'
p709
(F43.34512609999999
F-80.27688619999999
tp710
sS'15 NORFOLK AVE CAMBRIDGE Canada'
p711
(F43.376061
F-80.31727599999999
tp712
sS'551 PARKSIDE DR WATERLOO Canada'
p713
(F43.494613
F-80.5448127
tp714
sS'1370 MAPLE GROVE RD CAMBRIDGE Canada'
p715
(F43.4343197
F-80.3365323
tp716
sS'2 - 550 HESPELER RD CAMBRIDGE Canada'
p717
(F43.4020482
F-80.3268729
tp718
sS'895 LANGS DR CAMBRIDGE Canada'
p719
(F43.3999205
F-80.3348808
tp720
sS'11 CENTENNIAL DR KITCHENER Canada'
p721
(F43.4722499
F-80.43312519999999
tp722
sS'198 KING ST W KITCHENER Canada'
p723
(F43.4509988
F-80.4922267
tp724
sS'5,6 - 290 THOMPSON DR CAMBRIDGE Canada'
p725
(F43.4098775
F-80.2942774
tp726
sS'300 KING ST W KITCHENER Canada'
p727
(F43.451778
F-80.4946633
tp728
sS'183 KING ST E KITCHENER Canada'
p729
(F43.44840360000001
F-80.4862057
tp730
sS'1 GROH AVE CAMBRIDGE Canada'
p731
(F43.419503
F-80.327192
tp732
sS'12 - 255 KING ST N WATERLOO Canada'
p733
(F43.4773047
F-80.5257335
tp734
sS'200 KING ST W KITCHENER Canada'
p735
(F43.4523229
F-80.492099
tp736
sS'1398 KING ST N ST. JACOBS Canada'
p737
(F43.53912620000001
F-80.5534626
tp738
sS'1 - 160 UNIVERSITY AVE W WATERLOO Canada'
p739
(F43.472285
F-80.5380519
tp740
sS'1 - 209 PINEBUSH RD CAMBRIDGE Canada'
p741
(F43.4109777
F-80.3089164
tp742
sS'123 EDGEMERE DR CAMBRIDGE Canada'
p743
(F43.336312
F-80.30609
tp744
sS'208 HESPELER RD CAMBRIDGE Canada'
p745
(F43.3850525
F-80.3210142
tp746
sS'16 - 509 WILSON AVE KITCHENER Canada'
p747
(F43.4194574
F-80.4434754
tp748
sS'3 - 310 FAIRWAY RD S KITCHENER Canada'
p749
(F43.4215802
F-80.4440504
tp750
sS'108 UNIVERSITY AVE E E WATERLOO Canada'
p751
(F43.4790289
F-80.5179316
tp752
sS'8 WATER ST S CAMBRIDGE Canada'
p753
(F43.3585884
F-80.3154029
tp754
sS'160 UNIVERSITY AVE W WATERLOO Canada'
p755
(F43.472285
F-80.5380519
tp756
sS'115 DUNDAS ST N N CAMBRIDGE Canada'
p757
(F43.3594348
F-80.2951234
tp758
sS'485 THORNDALE DR WATERLOO Canada'
p759
(F43.445383
F-80.553693
tp760
sS'27 QUEEN ST W CAMBRIDGE Canada'
p761
(F43.4308364
F-80.3120131
tp762
sS'8 BRIDGE ST E KITCHENER Canada'
p763
(F43.4810508
F-80.4801763
tp764
sS'12 - 36 NORTHFIELD DR E WATERLOO Canada'
p765
(F43.5036327
F-80.53114289999999
tp766
sS'150 150 HOLIDAY INN DR CAMBRIDGE Canada'
p767
(F43.41948530000001
F-80.3253216
tp768
sS'1 - 158 UNIVERSITY AVE W WATERLOO Canada'
p769
(F43.4722862
F-80.5369264
tp770
sS'35 35 CHALMERS ST S S CAMBRIDGE Canada'
p771
(F43.3524868
F-80.2975213
tp772
sS'300 HAZEL ST WATERLOO Canada'
p773
(F43.4788023
F-80.5308151
tp774
sS'102 - 210 KING ST E KITCHENER Canada'
p775
(F43.44836000000001
F-80.4854713
tp776
sS'10 KING ST W KITCHENER Canada'
p777
(F43.45010329999999
F-80.489466
tp778
sS"2777 ERB'S RD WILMOT Canada"
p779
(F43.4237358
F-80.7012664
tp780
sS'15 - 170 UNIVERSITY AVE W WATERLOO Canada'
p781
(F43.4718401
F-80.53888069999999
tp782
sS'739 KING ST E CAMBRIDGE Canada'
p783
(F43.3955979
F-80.3575779
tp784
sS'405 PASTERN TRAIL WATERLOO Canada'
p785
(F43.49518
F-80.493974
tp786
sS'355 HOLIDAY INN DR CAMBRIDGE Canada'
p787
(F43.4180047
F-80.31637789999999
tp788
sS'1375 WEBER ST E KITCHENER Canada'
p789
(F43.43214589999999
F-80.4411018
tp790
sS'195 - 355 HESPELER RD CAMBRIDGE Canada'
p791
(F43.39311499999999
F-80.3196776
tp792
sS'3011 SAWMILL RD ST. JACOBS Canada'
p793
(F43.543021
F-80.547601
tp794
sS'78 - 600 HESPELER RD CAMBRIDGE Canada'
p795
(F43.4040703
F-80.32911759999999
tp796
sS'4289 KING ST E KITCHENER Canada'
p797
(F43.4099028
F-80.4000435
tp798
sS'1 LANGDON DR CAMBRIDGE Canada'
p799
(F43.3814919
F-80.3720665
tp800
sS'700 HESPELER RD CAMBRIDGE Canada'
p801
(F43.4095403
F-80.32927529999999
tp802
sS'1C - 247 KING ST N WATERLOO Canada'
p803
(F43.47627929999999
F-80.52560079999999
tp804
sS'A - 36 ONTARIO ST N KITCHENER Canada'
p805
(F43.4507992
F-80.4900995
tp806
sS'H - 220 KING ST N WATERLOO Canada'
p807
(F43.4752375
F-80.5243892
tp808
sS'795 OTTAWA ST S KITCHENER Canada'
p809
(F43.4222308
F-80.4890538
tp810
sS'1 - 8 BLOOMINGDALE RD N N KITCHENER Canada'
p811
(F43.4807938
F-80.4774339
tp812
sS'44 ST CHARLES ST E MARYHILL Canada'
p813
(F43.53552800000001
F-80.388052
tp814
sS'12 FEATHERSTONE ST KITCHENER Canada'
p815
(F43.3884915
F-80.4759514
tp816
sS'14 JANSEN AVE KITCHENER Canada'
p817
(F43.4304
F-80.436489
tp818
sS'350 MARGARET AVE KITCHENER Canada'
p819
(F43.46707
F-80.496273
tp820
sS'3A - 301 WATER ST S S CAMBRIDGE Canada'
p821
(F43.3392794
F-80.3128476
tp822
sS'3738 HESSEN STRASSE WELLESLEY Canada'
p823
(F43.502527
F-80.664722
tp824
sS'499 DUNDAS ST N CAMBRIDGE Canada'
p825
(F43.3723792
F-80.3164614
tp826
sS'18 TANNERY ST E CAMBRIDGE Canada'
p827
(F43.4309505
F-80.3090442
tp828
sS'9 - 192 ACTIVA AVE KITCHENER Canada'
p829
(F43.4058163
F-80.51279319999999
tp830
sS'41 LAUREL ST WATERLOO Canada'
p831
(F43.467182
F-80.5171979
tp832
sS'1055 ELGIN ST N CAMBRIDGE Canada'
p833
(F43.3910464
F-80.3028255
tp834
sS'175 BEVERLY ST CAMBRIDGE Canada'
p835
(F43.3662946
F-80.3051548
tp836
sS'3 - 1020 OTTAWA ST N KITCHENER Canada'
p837
(F43.4518269
F-80.4436882
tp838
sS'726 NEW HAMPSHIRE ST WATERLOO Canada'
p839
(F43.516393
F-80.5022539
tp840
sS'2 - 255 HIGHVIEW DR KITCHENER Canada'
p841
(F43.4145888
F-80.5522285
tp842
sS'400 - 610 LAURELWOOD DR WATERLOO Canada'
p843
(F43.4743588
F-80.57472489999999
tp844
sS'54 GUELPH AVE CAMBRIDGE Canada'
p845
(F43.4332009
F-80.31188499999999
tp846
sS'K10 - 550 KING ST N WATERLOO Canada'
p847
(F43.4977272
F-80.52832579999999
tp848
sS'169 MADISON AVE S KITCHENER Canada'
p849
(F43.442001
F-80.48610099999999
tp850
sS'345 THE BOARDWALK WATERLOO Canada'
p851
(F43.43752689999999
F-80.5646534
tp852
sS'47 GRAND AVE S S CAMBRIDGE Canada'
p853
(F43.35638000000001
F-80.31735499999999
tp854
sS'426 HIGHLAND RD W KITCHENER Canada'
p855
(F43.4368634
F-80.51277619999999
tp856
sS'184 SAMUELSON ST CAMBRIDGE Canada'
p857
(F43.370452
F-80.30497900000002
tp858
sS'1111 WEBER ST E KITCHENER Canada'
p859
(F43.43443
F-80.448961
tp860
sS'265 ELGIN ST N CAMBRIDGE Canada'
p861
(F43.37348
F-80.30272900000001
tp862
sS'554 HIGHLAND RD W KITCHENER Canada'
p863
(F43.4345499
F-80.5182119
tp864
sS'3011 KING ST E KITCHENER Canada'
p865
(F43.427946
F-80.43202
tp866
sS'25 LINNWOOD AVE CAMBRIDGE Canada'
p867
(F43.36241829999999
F-80.2963857
tp868
sS'14 - 170 UNIVERSITY AVE W WATERLOO Canada'
p869
(F43.4718401
F-80.53888069999999
tp870
sS'2 - 47 NORTHUMBERLAND ST AYR Canada'
p871
(F43.2871762
F-80.45150129999999
tp872
sS'210 COWAN BLVD CAMBRIDGE Canada'
p873
(F43.389238
F-80.29720499999999
tp874
sS'354 HIGHLAND RD W KITCHENER Canada'
p875
(F43.43824499999999
F-80.5107589
tp876
sS'319 LANCASTER ST W KITCHENER Canada'
p877
(F43.4693445
F-80.4843516
tp878
sS'400 GOLF COURSE RD CONESTOGO Canada'
p879
(F43.54561
F-80.495898
tp880
sS'171 SHERWOOD AVE KITCHENER Canada'
p881
(F43.456545
F-80.459892
tp882
sS'4B ARTHUR ST S ELMIRA Canada'
p883
(F43.5997776
F-80.5581225
tp884
sS'1 - 36 NORTHFIELD DR E WATERLOO Canada'
p885
(F43.5036327
F-80.53114289999999
tp886
sS'45 DUKE ST W KITCHENER Canada'
p887
(F43.451397
F-80.49017099999999
tp888
sS'520 COLLIER-MACMILLAN DR CAMBRIDGE Canada'
p889
(F43.4009171
F-80.3226018
tp890
sS'20 BENJAMIN RD WOOLWICH Canada'
p891
(F43.5086084
F-80.5553815
tp892
sS'52 GLASGOW ST KITCHENER Canada'
p893
(F43.4542298
F-80.5108727
tp894
sS'762 ST CHARLES ST W WOOLWICH Canada'
p895
(F43.5175376
F-80.43709249999999
tp896
sS'A5 - 800 FRANKLIN BLVD CAMBRIDGE Canada'
p897
(F43.3797211
F-80.299713
tp898
sS'380 WEBER ST W KITCHENER Canada'
p899
(F43.462856
F-80.50121999999999
tp900
sS'196 VICTORIA ST N KITCHENER Canada'
p901
(F43.456422
F-80.48964699999999
tp902
sS'25 MADISON AVE N KITCHENER Canada'
p903
(F43.4473315
F-80.4813509
tp904
sS'G12 - 550 KING ST N WATERLOO Canada'
p905
(F43.4977272
F-80.52832579999999
tp906
sS'7 - 465 PHILLIP ST WATERLOO Canada'
p907
(F43.484427
F-80.5408376
tp908
sS'1401 RIVER RD E KITCHENER Canada'
p909
(F43.433952
F-80.428049
tp910
sS'114 KING ST N WATERLOO Canada'
p911
(F43.46924509999999
F-80.5232652
tp912
sS"1761 ERB'S RD W ST. AGATHA Canada"
p913
(F43.4345854
F-80.6302853
tp914
sS'15 - 561 HESPELER RD CAMBRIDGE Canada'
p915
(F43.4032795
F-80.3255049
tp916
sS'5 - 179 UNION ST NEW HAMBURG Canada'
p917
(F43.3790676
F-80.711759
tp918
sS'5 - 250 DUNDAS ST S S CAMBRIDGE Canada'
p919
(F43.35447600000001
F-80.2888099
tp920
sS'20 AINSLIE ST N CAMBRIDGE Canada'
p921
(F43.3589067
F-80.3136178
tp922
sS'121 - 499 LANCASTER ST W KITCHENER Canada'
p923
(F43.4762197
F-80.4849344
tp924
sS'450 KING ST E KITCHENER Canada'
p925
(F43.446812
F-80.481619
tp926
sS'363 KING ST N WATERLOO Canada'
p927
(F43.482102
F-80.526864
tp928
sS'258 WATER ST N CAMBRIDGE Canada'
p929
(F43.3712086
F-80.3181709
tp930
sS'390 ARTHUR ST S WOOLWICH Canada'
p931
(F43.5771958
F-80.56315149999999
tp932
sS'96 HURON ST NEW HAMBURG Canada'
p933
(F43.3786004
F-80.7113967
tp934
sS'1 - 215 THE BOARDWALK KITCHENER Canada'
p935
(F43.43605480000001
F-80.5594849
tp936
sS'B6 - 1400 WEBER ST E KITCHENER Canada'
p937
(F43.4331827
F-80.4390667
tp938
sS'204 - 265 KING ST E KITCHENER Canada'
p939
(F43.447716
F-80.484853
tp940
sS'2607 BLEAMS RD WILMOT Canada'
p941
(F43.3818946
F-80.63344479999999
tp942
sS'6 - 1120 VICTORIA ST N KITCHENER Canada'
p943
(F43.4668143
F-80.4586875
tp944
sS'1001 FRANKLIN BLVD CAMBRIDGE Canada'
p945
(F43.3957749
F-80.3020313
tp946
sS'32 ARTHUR ST S ELMIRA Canada'
p947
(F43.59915729999999
F-80.5586405
tp948
sS'1 - 1225 KING ST E CAMBRIDGE Canada'
p949
(F43.391955
F-80.350414
tp950
sS'C6 - 1400 OTTAWA ST S KITCHENER Canada'
p951
(F43.4156309
F-80.515221
tp952
sS'1-203 LESTER ST WATERLOO Canada'
p953
(F43.472243
F-80.53329649999999
tp954
sS'1212 KING ST N ST. JACOBS Canada'
p955
(F43.531158
F-80.5543
tp956
sS'123 - 120 OTTAWA ST N N KITCHENER Canada'
p957
(F43.4440781
F-80.4689925
tp958
sS'109 - 33 ERB ST W WATERLOO Canada'
p959
(F43.4647764
F-80.5238181
tp960
sS'30 - 121 CHARLES ST W KITCHENER Canada'
p961
(F43.451609
F-80.4979235
tp962
sS'709 BELMONT AVE W KITCHENER Canada'
p963
(F43.4538437
F-80.5183849
tp964
sS'2191 ARTHUR ST N WOOLWICH Canada'
p965
(F43.6324341
F-80.5500486
tp966
sS'85 JOHNSTON AVE CAMBRIDGE Canada'
p967
(F43.4273586
F-80.3114389
tp968
sS'3 - 149 HESPELER RD CAMBRIDGE Canada'
p969
(F43.3801733
F-80.3192304
tp970
sS'1 - 248 STIRLING AVE S S KITCHENER Canada'
p971
(F43.4409271
F-80.4858998
tp972
sS'135 HIGHLAND RD W KITCHENER Canada'
p973
(F43.4407054
F-80.503362
tp974
sS'160 COLUMBIA ST W WATERLOO Canada'
p975
(F43.47686540000001
F-80.5413501
tp976
sS'242 QUEEN ST S KITCHENER Canada'
p977
(F43.44723260000001
F-80.492136
tp978
sS'3 - 247 KING ST N WATERLOO Canada'
p979
(F43.47627929999999
F-80.52560079999999
tp980
sS'2430 HOMER WATSON BLVD KITCHENER Canada'
p981
(F43.386484
F-80.4127168
tp982
sS'400 EAST AVE KITCHENER Canada'
p983
(F43.4473542
F-80.4669962
tp984
sS'273 KING ST W KITCHENER Canada'
p985
(F43.451377
F-80.4942449
tp986
sS'92 KING ST S WATERLOO Canada'
p987
(F43.46316789999999
F-80.5214706
tp988
sS'65 SALTSMAN DR CAMBRIDGE Canada'
p989
(F43.4174652
F-80.3791573
tp990
sS'565 KING ST N WATERLOO Canada'
p991
(F43.5010292
F-80.5333103
tp992
sS'18 - 561 HESPELER RD CAMBRIDGE Canada'
p993
(F43.4032795
F-80.3255049
tp994
sS'46 COURTLAND AVE E KITCHENER Canada'
p995
(F43.4453206
F-80.4912437
tp996
sS'2 - 1500 WEBER ST E KITCHENER Canada'
p997
(F43.4311109
F-80.43726439999999
tp998
sS'1000 WESTMOUNT RD E KITCHENER Canada'
p999
(F43.4108404
F-80.4989291
tp1000
sS"1193 QUEEN'S BUSH RD WELLESLEY Canada"
p1001
(F43.4775649
F-80.7643317
tp1002
sS'373 BRIDGE ST W WATERLOO Canada'
p1003
(F43.4956711
F-80.5013463
tp1004
sS'164 FERGUS AVE KITCHENER Canada'
p1005
(F43.4356108
F-80.43975619999999
tp1006
sS'105 - 215 HIGHLAND RD W KITCHENER Canada'
p1007
(F43.4401506
F-80.5067663
tp1008
sS'111 - 107 WESTMINSTER DR N CAMBRIDGE Canada'
p1009
(F43.39608
F-80.358054
tp1010
sS'1550 MORRISON RD NORTH DUMFRIES Canada'
p1011
(F43.3371206
F-80.2499295
tp1012
sS'A - 90 PEEL ST NEW HAMBURG Canada'
p1013
(F43.378089
F-80.70969079999999
tp1014
sS'80 DUNDAS ST S CAMBRIDGE Canada'
p1015
(F43.356433
F-80.291443
tp1016
sS'6 - 100 FROBISHER DR WATERLOO Canada'
p1017
(F43.504983
F-80.5306301
tp1018
sS'401 NEW DUNDEE RD KITCHENER Canada'
p1019
(F43.3688539
F-80.41578249999999
tp1020
sS'100 FERGUS AVE KITCHENER Canada'
p1021
(F43.4344303
F-80.4418115
tp1022
sS'125 HAMILTON RD NEW HAMBURG Canada'
p1023
(F43.3837621
F-80.7009573
tp1024
sS'89 GRAND AVE S S CAMBRIDGE Canada'
p1025
(F43.354186
F-80.317279
tp1026
sS'300 KING ST E E KITCHENER Canada'
p1027
(F43.447943
F-80.4834631
tp1028
sS'540 WESTFOREST TRAIL KITCHENER Canada'
p1029
(F43.4254457
F-80.54491100000001
tp1030
sS'14 VIMY ST CAMBRIDGE Canada'
p1031
(F43.3524172
F-80.304999
tp1032
sS'640 NEW HAMPSHIRE ST WATERLOO Canada'
p1033
(F43.5131574
F-80.5043176
tp1034
sS'540 QUEENSTON RD CAMBRIDGE Canada'
p1035
(F43.395718
F-80.361356
tp1036
sS'55 HILLTOP DR AYR Canada'
p1037
(F43.2841371
F-80.4406668
tp1038
sS'22 WILLOW ST WATERLOO Canada'
p1039
(F43.465072
F-80.516425
tp1040
sS'656 KING ST E CAMBRIDGE Canada'
p1041
(F43.3960011
F-80.358684
tp1042
sS'137 QUEEN ST S KITCHENER Canada'
p1043
(F43.448288
F-80.490433
tp1044
sS'20 TYSON DR KITCHENER Canada'
p1045
(F43.4827653
F-80.4778566
tp1046
sS'3, 4 - 561 HESPELER RD CAMBRIDGE Canada'
p1047
(F43.4032795
F-80.3255049
tp1048
sS'9 - 262 MILL ST KITCHENER Canada'
p1049
(F43.436952
F-80.48539699999999
tp1050
sS'99 OTTAWA ST S S KIchener Canada'
p1051
(F43.4396217
F-80.47388699999999
tp1052
sS'405 THE BOARDWALK WATERLOO Canada'
p1053
(F43.4386273
F-80.5639046
tp1054
sS'100 WILMOT LINE WATERLOO Canada'
p1055
(F43.4500385
F-80.59313689999999
tp1056
sS'15 INTERNATIONAL VILLAGE DR CAMBRIDGE Canada'
p1057
(F43.3906593
F-80.3189562
tp1058
sS'625 ROCKWAY DR KITCHENER Canada'
p1059
(F43.4389215
F-80.4671468
tp1060
sS'465 PHILLIP ST WATERLOO Canada'
p1061
(F43.484427
F-80.5408376
tp1062
sS'4A - 1401 RIVER RD E KITCHENER Canada'
p1063
(F43.433952
F-80.428049
tp1064
sS'30 ARTHUR ST S ELMIRA Canada'
p1065
(F43.5991972
F-80.5585366
tp1066
sS'175 WEST AVE KITCHENER Canada'
p1067
(F43.4455681
F-80.5056518
tp1068
sS'61 MAIN ST CAMBRIDGE Canada'
p1069
(F43.358808
F-80.31394519999999
tp1070
sS'195 WATERLOO ST NEW HAMBURG Canada'
p1071
(F43.3824364
F-80.7137089
tp1072
sS'65 HANSON AVE KITCHENER Canada'
p1073
(F43.4250197
F-80.4722467
tp1074
sS'3B - 101 HOLIDAY INN DR CAMBRIDGE Canada'
p1075
(F43.4190244
F-80.3244199
tp1076
sS'D - 500 CAN AMERA PKY CAMBRIDGE Canada'
p1077
(F43.4056165
F-80.2855354
tp1078
sS'1232 NORTHFIELD DR E WOOLWICH Canada'
p1079
(F43.5531999
F-80.5186839
tp1080
sS'90 MOORE AVE S WATERLOO Canada'
p1081
(F43.4641894
F-80.5115194
tp1082
sS'1360 MARYHILL RD MARYHILL Canada'
p1083
(F43.5364
F-80.393502
tp1084
sS'203 KING ST S WATERLOO Canada'
p1085
(F43.4594596
F-80.5180053
tp1086
sS'1151 VICTORIA ST N KITCHENER Canada'
p1087
(F43.4661649
F-80.4552956
tp1088
sS'5 - 247 KING ST N WATERLOO Canada'
p1089
(F43.47627929999999
F-80.52560079999999
tp1090
sS'189 PARK ST WATERLOO Canada'
p1091
(F43.45721
F-80.518248
tp1092
sS'315 WEBER ST N N WATERLOO Canada'
p1093
(F43.4808978
F-80.5228041
tp1094
sS'6 - 1405 OTTAWA ST N KITCHENER Canada'
p1095
(F43.4561236
F-80.4297315
tp1096
sS'1 - 465 PHILLIP ST WATERLOO Canada'
p1097
(F43.484427
F-80.5408376
tp1098
sS'275 ERB ST E WATERLOO Canada'
p1099
(F43.47086650000001
F-80.4989611
tp1100
sS'1170 FISCHER-HALLMAN RD KITCHENER Canada'
p1101
(F43.4073196
F-80.5003523
tp1102
sS'1450 BLOCK LINE RD KITCHENER Canada'
p1103
(F43.4190169
F-80.4695981
tp1104
sS'1872 SAWMILL RD CONESTOGO Canada'
p1105
(F43.541443
F-80.50288599999999
tp1106
sS'16 - 900 JAMIESON PKY CAMBRIDGE Canada'
p1107
(F43.4246734
F-80.2855609
tp1108
sS'50 AINSLIE ST S CAMBRIDGE Canada'
p1109
(F43.3525529
F-80.31323069999999
tp1110
sS'153 COUNTRY HILL DR KITCHENER Canada'
p1111
(F43.413608
F-80.472439
tp1112
sS'570 UNIVERSITY AVE E WATERLOO Canada'
p1113
(F43.495254
F-80.490752
tp1114
sS'2 - 450 COLUMBIA ST W WATERLOO Canada'
p1115
(F43.46846
F-80.56867849999999
tp1116
sS'139 HILLBROOK CRES KITCHENER Canada'
p1117
(F43.425176
F-80.52759999999999
tp1118
sS'446 HIGHLAND RD W KITCHENER Canada'
p1119
(F43.436632
F-80.51348999999999
tp1120
sS'109 - 50 OTTAWA ST S S KITCHENER Canada'
p1121
(F43.441442
F-80.473534
tp1122
sS'253 KING ST N WATERLOO Canada'
p1123
(F43.4766854
F-80.525453
tp1124
sS'183 WEBER ST N WATERLOO Canada'
p1125
(F43.4754343
F-80.5182645
tp1126
sS'37 - 200 FRANKLIN BLVD CAMBRIDGE Canada'
p1127
(F43.3569027
F-80.2893036
tp1128
sS'155 NORTHFIELD DR W W WATERLOO Canada'
p1129
(F43.4956973
F-80.546887
tp1130
sS'355 HESPELER RD CAMBRIDGE Canada'
p1131
(F43.39311499999999
F-80.3196776
tp1132
sS'153 MONTCALM DR KITCHENER Canada'
p1133
(F43.4540266
F-80.4403523
tp1134
sS'331 KING ST W KITCHENER Canada'
p1135
(F43.4518146
F-80.4953621
tp1136
sS'2 - 4 KING ST N WATERLOO Canada'
p1137
(F43.4653383
F-80.5222308
tp1138
sS'101 - 120 OTTAWA ST N KITCHENER Canada'
p1139
(F43.4440781
F-80.4689925
tp1140
sS'3 - 10 PINEBUSH RD CAMBRIDGE Canada'
p1141
(F43.40878290000001
F-80.3271688
tp1142
sS'29 WESTMOUNT RD S S WATERLOO Canada'
p1143
(F43.4577128
F-80.5359146
tp1144
sS'14 BLAIR RD CAMBRIDGE Canada'
p1145
(F43.361145
F-80.31709099999999
tp1146
sS'1 - 400 THE BOARDWALK WATERLOO Canada'
p1147
(F43.4346621
F-80.5595178
tp1148
sS'11 - 160 UNIVERSITY AVE W WATERLOO Canada'
p1149
(F43.472285
F-80.5380519
tp1150
sS'10 GATEHOUSE DR CAMBRIDGE Canada'
p1151
(F43.344215
F-80.279501
tp1152
sS'31 UNIVERSITY AVE E WATERLOO Canada'
p1153
(F43.476597
F-80.52306899999999
tp1154
sS'17 HURON ST NEW HAMBURG Canada'
p1155
(F43.3782356
F-80.7101982
tp1156
sS'80 BLUEVALE ST N WATERLOO Canada'
p1157
(F43.475564
F-80.500581
tp1158
sS'340 THE BOARDWALK WATERLOO Canada'
p1159
(F43.438714
F-80.5623568
tp1160
sS'122 - 499 LANCASTER ST W KITCHENER Canada'
p1161
(F43.4762197
F-80.4849344
tp1162
sS'50 WEBER ST N WATERLOO Canada'
p1163
(F43.4708222
F-80.5125044
tp1164
sS'16 WILLIAM ST  W WATERLOO Canada'
p1165
(F43.461635
F-80.521913
tp1166
sS'150 CAROLINE ST S WATERLOO Canada'
p1167
(F43.4596341
F-80.5193889
tp1168
sS'1450 BLOCKLINE RD KITCHENER Canada'
p1169
(F43.4190169
F-80.4695981
tp1170
sS'35 LA SALLE ST BRESLAU Canada'
p1171
(F43.4859641
F-80.4093869
tp1172
sS'507 KING ST E CAMBRIDGE Canada'
p1173
(F43.3972197
F-80.3610042
tp1174
sS'4B - 809 VICTORIA ST N KITCHENER Canada'
p1175
(F43.4624156
F-80.46872650000002
tp1176
sS'175 INDIAN RD KITCHENER Canada'
p1177
(F43.457436
F-80.4365516
tp1178
sS'244 WEBER ST N WATERLOO Canada'
p1179
(F43.478022
F-80.519021
tp1180
sS'125 HIGHLAND RD E KITCHENER Canada'
p1181
(F43.4390922
F-80.4940304
tp1182
sS'100 FATHER DAVID BAUER DR WATERLOO Canada'
p1183
(F43.4625569
F-80.53907819999999
tp1184
sS'B17 - 550 KING ST N WATERLOO Canada'
p1185
(F43.4977272
F-80.52832579999999
tp1186
sS'8B - 450 WESTHEIGHTS DR KITCHENER Canada'
p1187
(F43.417798
F-80.5356
tp1188
sS'15 KING ST N WATERLOO Canada'
p1189
(F43.465523
F-80.52272099999999
tp1190
sS'23 - 63 COURTLAND AVE E KITCHENER Canada'
p1191
(F43.444453
F-80.49071200000002
tp1192
sS'4 - 324 HIGHLAND RD W KITCHENER Canada'
p1193
(F43.4392797
F-80.5101095
tp1194
sS'1531 EAGLE ST N N CAMBRIDGE Canada'
p1195
(F43.404502
F-80.34661
tp1196
sS'1572 VICTORIA ST N KITCHENER Canada'
p1197
(F43.4738805
F-80.43684979999999
tp1198
sS'6 - 112 ORIOLE PKY ELMIRA Canada'
p1199
(F43.5892382
F-80.57285360000002
tp1200
sS'290 WESTMOUNT RD N WATERLOO Canada'
p1201
(F43.468953
F-80.549204
tp1202
sS'99 STRANGE ST KITCHENER Canada'
p1203
(F43.448952
F-80.50927399999999
tp1204
sS'1688 BLAIR RD CAMBRIDGE Canada'
p1205
(F43.3843748
F-80.3860131
tp1206
sS'235 FRANKLIN BLVD CAMBRIDGE Canada'
p1207
(F43.355535
F-80.2857002
tp1208
sS'4 - 370 EASTBRIDGE BLVD WATERLOO Canada'
p1209
(F43.5042883
F-80.5090196
tp1210
sS'3 - 205 THE BOARDWALK KITCHENER Canada'
p1211
(F43.4346621
F-80.5595178
tp1212
sS'105 LEXINGTON RD WATERLOO Canada'
p1213
(F43.4868458
F-80.517072
tp1214
sS'350 WESTMOUNT RD W KITCHENER Canada'
p1215
(F43.44068439999999
F-80.5214051
tp1216
sS'46 GRAND AVE S CAMBRIDGE Canada'
p1217
(F43.3561389
F-80.31850879999999
tp1218
sS'4 - 315 LANCASTER ST W KITCHENER Canada'
p1219
(F43.4581138
F-80.4824356
tp1220
sS'298 SHEPHERD AVE CAMBRIDGE Canada'
p1221
(F43.4227685
F-80.32351899999999
tp1222
sS'125 GRAVEL RIDGE TRAIL KITCHENER Canada'
p1223
(F43.4008866
F-80.5263009
tp1224
sS'4 - 15 KING ST S WATERLOO Canada'
p1225
(F43.4646431
F-80.52257329999999
tp1226
sS'312 KING ST W KITCHENER Canada'
p1227
(F43.452058
F-80.494922
tp1228
sS'375 HESPELER RD CAMBRIDGE Canada'
p1229
(F43.393777
F-80.3234021
tp1230
sS'99 WEBER ST W KITCHENER Canada'
p1231
(F43.454213
F-80.493161
tp1232
sS'5 - 95 SAGINAW PKY CAMBRIDGE Canada'
p1233
(F43.391019
F-80.300614
tp1234
sS'1102 KING ST E CAMBRIDGE Canada'
p1235
(F43.392911
F-80.353138
tp1236
sS'725 OTTAWA ST S KITCHENER Canada'
p1237
(F43.42381
F-80.48456499999999
tp1238
sS'480 HESPELER RD CAMBRIDGE Canada'
p1239
(F43.39745200000001
F-80.32488
tp1240
sS'5 - 300 MILL ST KITCHENER Canada'
p1241
(F43.4367479
F-80.4843135
tp1242
sS'13 - 383 ELGIN ST N CAMBRIDGE Canada'
p1243
(F43.3791564
F-80.3065268
tp1244
sS'301 WATER ST CAMBRIDGE Canada'
p1245
(F43.3392794
F-80.3128476
tp1246
sS'145 PEEL ST NEW HAMBURG Canada'
p1247
(F43.37782199999999
F-80.7083853
tp1248
sS'1B - 480 HESPELER RD CAMBRIDGE Canada'
p1249
(F43.3980952
F-80.3261879
tp1250
sS'1470 WEBER ST E KITCHENER Canada'
p1251
(F43.4313152
F-80.4377575
tp1252
sS'10 - 65 UNIVERSITY AVE E WATERLOO Canada'
p1253
(F43.4774197
F-80.5204428
tp1254
sS'1191 FISCHER-HALLMAN RD KITCHENER Canada'
p1255
(F43.4055997
F-80.49959
tp1256
sS'50 WESTMOUNT RD N WATERLOO Canada'
p1257
(F43.46174800000001
F-80.5374452
tp1258
sS'3031 LOBSINGER LINE HEIDELBERG Canada'
p1259
(F43.5206366
F-80.6213824
tp1260
sS'1 - 197 KING ST E KITCHENER Canada'
p1261
(F43.4482896
F-80.48602749999999
tp1262
sS'6 - 561 HESPELER RD CAMBRIDGE Canada'
p1263
(F43.4032795
F-80.3255049
tp1264
sS'39 QUEEN ST E CAMBRIDGE Canada'
p1265
(F43.4319442
F-80.3097248
tp1266
sS'460 BRENTCLIFFE DRIVE WATERLOO Canada'
p1267
(F43.46859260000001
F-80.5757062
tp1268
sS'1 - 525 HIGHLAND RD W KITCHENER Canada'
p1269
(F43.43516049999999
F-80.5151336
tp1270
sS'34 HENRY ST ST. JACOBS Canada'
p1271
(F43.5350773
F-80.5594866
tp1272
sS'255 ST ANDREWS ST CAMBRIDGE Canada'
p1273
(F43.345992
F-80.3287108
tp1274
sS'710 KING ST E CAMBRIDGE Canada'
p1275
(F43.3957774
F-80.3582612
tp1276
sS'135 LENNOX LEWIS WAY KITCHENER Canada'
p1277
(F43.4221949
F-80.471301
tp1278
sS'300 FAIRWAY RD S KITCHENER Canada'
p1279
(F43.4211698
F-80.4427482
tp1280
sS'120 MAIN ST CAMBRIDGE Canada'
p1281
(F43.3589263
F-80.31216309999999
tp1282
sS'2727 KINGSWAY DR KITCHENER Canada'
p1283
(F43.4298057
F-80.4417718
tp1284
sS'751 VICTORIA ST S KITCHENER Canada'
p1285
(F43.4386027
F-80.5220176
tp1286
sS'255 FISCHER-HALLMAN RD KITCHENER Canada'
p1287
(F43.4258584
F-80.5218373
tp1288
sS'16 CHARLES ST W KITCHENER Canada'
p1289
(F43.4497602
F-80.4917121
tp1290
sS'1386 KING ST N ST. JACOBS Canada'
p1291
(F43.5385573
F-80.55362509999999
tp1292
sS'C - 4281 KING STREET EAST E KITCHENER Canada'
p1293
(F43.4088816
F-80.3997249
tp1294
sS'280 - LANCASTER ST W KITCHENER Canada'
p1295
(F43.468169
F-80.483966
tp1296
sS'180 HOLIDAY INN DR CAMBRIDGE Canada'
p1297
(F43.4156103
F-80.3239553
tp1298
sS'7 CHURCH ST AYR Canada'
p1299
(F43.2839247
F-80.45369769999999
tp1300
sS'226 QUEEN ST S KITCHENER Canada'
p1301
(F43.447468
F-80.492182
tp1302
sS'464 MAPLE AVE KITCHENER Canada'
p1303
(F43.4718305
F-80.4822976
tp1304
sS'12 - 250 DUNDAS ST S CAMBRIDGE Canada'
p1305
(F43.35447600000001
F-80.2888099
tp1306
sS'Unit 4&5 - 101 HAZELGLEN DR KITCHENER Canada'
p1307
(F43.4399243
F-80.5270231
tp1308
sS'1540 HAYSVILLE RD NEW HAMBURG Canada'
p1309
(F43.3704155
F-80.70345139999999
tp1310
sS'92 WEICHEL ST KITCHENER Canada'
p1311
(F43.4409881
F-80.5191447
tp1312
sS'1 - 330 THE BOARDWALK WATERLOO Canada'
p1313
(F43.4379137
F-80.5631227
tp1314
sS'326 - 355 HESPELER RD CAMBRIDGE Canada'
p1315
(F43.39311499999999
F-80.3196776
tp1316
sS'560 KING ST N WATERLOO Canada'
p1317
(F43.4996162
F-80.5304486
tp1318
sS'V2 - 835 KING ST W KITCHENER Canada'
p1319
(F43.4562423
F-80.51244439999999
tp1320
sS'911 QUEENS BLVD KITCHENER Canada'
p1321
(F43.4382883
F-80.50079749999999
tp1322
sS'11 - 258 KING ST N WATERLOO Canada'
p1323
(F43.4770643
F-80.5247756
tp1324
sS'371 FRANKLIN ST N N KITCHENER Canada'
p1325
(F43.4442222
F-80.44765079999999
tp1326
sS'9 - 262 MILL STREET Kitchener Canada'
p1327
(F43.436952
F-80.48539699999999
tp1328
sS'851 FISCHER-HALLMAN RD KITCHENER Canada'
p1329
(F43.4424741
F-80.5447126
tp1330
sS'85 HURON ST NEW HAMBURG Canada'
p1331
(F43.3779075
F-80.71129789999999
tp1332
sS'600 QUEEN ST S S KITCHENER Canada'
p1333
(F43.44328429999999
F-80.4963471
tp1334
sS'L,M - 120 TURNBULL CRT CAMBRIDGE Canada'
p1335
(F43.4043005
F-80.30416489999999
tp1336
sS'104 WEBER ST N WATERLOO Canada'
p1337
(F43.47184000000001
F-80.513431
tp1338
sS'1346 CLYDE RD NORTH DUMFRIES Canada'
p1339
(F43.3816119
F-80.2434798
tp1340
sS'869 VICTORIA ST N N KITCHENER Canada'
p1341
(F43.4630907
F-80.4657579
tp1342
sS'5A - 95 SAGINAW PKY CAMBRIDGE Canada'
p1343
(F43.391019
F-80.300614
tp1344
sS'118 ST ANDREWS ST CAMBRIDGE Canada'
p1345
(F43.353609
F-80.322912
tp1346
sS'1 - 296 HIGHLAND RD E KITCHENER Canada'
p1347
(F43.435334
F-80.49027099999999
tp1348
sS'1271 VICTORIA ST N KITCHENER Canada'
p1349
(F43.46832939999999
F-80.4498607
tp1350
sS'4 - 465 HIGHLAND RD W KITCHENER Canada'
p1351
(F43.4360129
F-80.5135835
tp1352
sS'3 - 250 DUNDAS ST S S CAMBRIDGE Canada'
p1353
(F43.35447600000001
F-80.2888099
tp1354
sS'23 - 480 HESPELER RD CAMBRIDGE Canada'
p1355
(F43.3980952
F-80.3261879
tp1356
sS'500 PARKSIDE DR WATERLOO Canada'
p1357
(F43.4889273
F-80.5445751
tp1358
sS'2492 CEDAR CREEK RD NORTH DUMFRIES Canada'
p1359
(F43.3341593
F-80.4313555
tp1360
sS'2001 UNIVERSITY AVE E E WATERLOO Canada'
p1361
(F43.5191718
F-80.50206709999999
tp1362
sS'730 KING ST W KITCHENER Canada'
p1363
(F43.4556622
F-80.5062159
tp1364
sS'73 KING ST W KITCHENER Canada'
p1365
(F43.4503123
F-80.4904612
tp1366
sS'250 KING ST W KITCHENER Canada'
p1367
(F43.4514984
F-80.49378829999999
tp1368
sS'200 CHRISTOPHER DR CAMBRIDGE Canada'
p1369
(F43.342612
F-80.303474
tp1370
sS'144 SHELDON AVE N KITCHENER Canada'
p1371
(F43.44304109999999
F-80.46422539999999
tp1372
sS'760 WEBER ST E KITCHENER Canada'
p1373
(F43.439402
F-80.461135
tp1374
sS'777 WEBER ST E E KITCHENER Canada'
p1375
(F43.4387341
F-80.46086260000001
tp1376
sS'1910 ROSEVILLE RD NORTH DUMFRIES Canada'
p1377
(F43.3566955
F-80.4023069
tp1378
sS'139 FATHER DAVID BAUER DR WATERLOO Canada'
p1379
(F43.4637306
F-80.5356733
tp1380
sS'91 UNIVERSITY AVE E WATERLOO Canada'
p1381
(F43.47822
F-80.518259
tp1382
sS'26 ELM ST KITCHENER Canada'
p1383
(F43.4530377
F-80.51060199999999
tp1384
sS'300 GAGE AVE KITCHENER Canada'
p1385
(F43.4457166
F-80.5171891
tp1386
sS'438 HIGHLAND RD W KITCHENER Canada'
p1387
(F43.436862
F-80.51337099999999
tp1388
sS'300 KING ST E KITCHENER Canada'
p1389
(F43.447943
F-80.4834631
tp1390
sS'c103 - 95 KING ST S WATERLOO Canada'
p1391
(F43.4630965
F-80.522174
tp1392
sS'550 HESPELER RD CAMBRIDGE Canada'
p1393
(F43.4020482
F-80.3268729
tp1394
sS'A - 29 KING ST E KITCHENER Canada'
p1395
(F43.449451
F-80.48849969999999
tp1396
sS'368 PARK ST KITCHENER Canada'
p1397
(F43.4541908
F-80.5099412
tp1398
sS'351 WATERLOO ST NEW HAMBURG Canada'
p1399
(F43.38615919999999
F-80.7114991
tp1400
sS'524 BELMONT AVE W KITCHENER Canada'
p1401
(F43.4480868
F-80.51410779999999
tp1402
sS'17 - 421 GREENBROOK DR KITCHENER Canada'
p1403
(F43.424718
F-80.510924
tp1404
sS'2191 KINGSWAY DR KITCHENER Canada'
p1405
(F43.434151
F-80.45241800000001
tp1406
sS'14 - 160 FROBISHER DR WATERLOO Canada'
p1407
(F43.506943
F-80.527419
tp1408
sS'25 BRUCE ST KITCHENER Canada'
p1409
(F43.461626
F-80.47013199999999
tp1410
sS'3 - 450 COLUMBIA ST W WATERLOO Canada'
p1411
(F43.46846
F-80.56867849999999
tp1412
sS'95 WATER ST N CAMBRIDGE Canada'
p1413
(F43.36235
F-80.31470399999999
tp1414
sS'23 CHURCH ST NEW HAMBURG Canada'
p1415
(F43.37542550000001
F-80.7074246
tp1416
sS'109B - 1020 OTTAWA ST NORTH KITCHENER Canada'
p1417
(F43.4518269
F-80.4436882
tp1418
sS'593 VICTORIA ST N KITCHENER Canada'
p1419
(F43.4604857
F-80.4756483
tp1420
sS'70 VANIER DR KITCHENER Canada'
p1421
(F43.4293646
F-80.4645683
tp1422
sS"1140 SNYDER'S RD W WILMOT Canada"
p1423
(F43.4017009
F-80.6858874
tp1424
sS'1501 MAPLE BEND RD WOOLWICH Canada'
p1425
(F43.5194693
F-80.45916319999999
tp1426
sS'14 - 154 VICTORIA ST S KITCHENER Canada'
p1427
(F43.448896
F-80.502164
tp1428
sS'17 - 151 CHARLES ST W KITCHENER Canada'
p1429
(F43.45093809999999
F-80.4982637
tp1430
sS'15 INTERNATIONAL VILLAGE DRIVE CAMBRIDGE Canada'
p1431
(F43.3906593
F-80.3189562
tp1432
sS'3 - 188 HIGHLAND RD W KITCHENER Canada'
p1433
(F43.440903
F-80.505832
tp1434
sS'B2 - 200 PRESTON PKY CAMBRIDGE Canada'
p1435
(F43.3996748
F-80.37604449999999
tp1436
sS'8B - 580 HESPELER RD CAMBRIDGE Canada'
p1437
(F43.4031797
F-80.327388
tp1438
sS'55 BEVERLY ST CAMBRIDGE Canada'
p1439
(F43.3617016
F-80.3094694
tp1440
sS'699 BELMONT AVE W KITCHENER Canada'
p1441
(F43.453585
F-80.518383
tp1442
sS'94 KING ST S WATERLOO Canada'
p1443
(F43.4630686
F-80.5215645
tp1444
sS'150 150 MAIN ST CAMBRIDGE Canada'
p1445
(F43.3588775
F-80.3112014
tp1446
sS'B6 - 1 HESPELER RD CAMBRIDGE Canada'
p1447
(F43.3741709
F-80.31810829999999
tp1448
sS'1 - 338 WATERLOO ST NEW HAMBURG Canada'
p1449
(F43.3857595
F-80.7124098
tp1450
sS'114 ST LEGER ST KITCHENER Canada'
p1451
(F43.460642
F-80.48732299999999
tp1452
sS'250 HESPELER RD CAMBRIDGE Canada'
p1453
(F43.3861475
F-80.3220904
tp1454
sS'520 SAGINAW PKY CAMBRIDGE Canada'
p1455
(F43.390561
F-80.2831819
tp1456
sS'301 CHARLES ST E KITCHENER Canada'
p1457
(F43.4448817
F-80.481925
tp1458
sS'246 KING ST E CAMBRIDGE Canada'
p1459
(F43.3986111
F-80.36367709999999
tp1460
sS'811 BARBARA CRT CAMBRIDGE Canada'
p1461
(F43.399939
F-80.34072499999999
tp1462
sS'F1 - 550 KING ST N WATERLOO Canada'
p1463
(F43.4977272
F-80.52832579999999
tp1464
sS'J - 500 CAN-AMERA PKY CAMBRIDGE Canada'
p1465
(F43.4056165
F-80.2855354
tp1466
sS'3 - 79 ELGIN ST N N CAMBRIDGE Canada'
p1467
(F43.36212099999999
F-80.298059
tp1468
sS'1402 KING ST N ST. JACOBS Canada'
p1469
(F43.5392062
F-80.5534509
tp1470
sS'25 EBY ST S KITCHENER Canada'
p1471
(F43.4472061
F-80.4849732
tp1472
sS'562 HURON ST NEW HAMBURG Canada'
p1473
(F43.3713671
F-80.7214597
tp1474
sS'160 FROBISHER DR WATERLOO Canada'
p1475
(F43.506943
F-80.527419
tp1476
sS'385 WATERLOO ST NEW HAMBURG Canada'
p1477
(F43.3870722
F-80.71098099999999
tp1478
sS'520 ELLIS RD CAMBRIDGE Canada'
p1479
(F43.42724070000001
F-80.2948806
tp1480
sS'B1 - 101 HOLIDAY INN DR CAMBRIDGE Canada'
p1481
(F43.4190244
F-80.3244199
tp1482
sS'684 HESPELER RD CAMBRIDGE Canada'
p1483
(F43.408383
F-80.32867
tp1484
sS'2934 KING ST E KITCHENER Canada'
p1485
(F43.4292725
F-80.4346681
tp1486
sS'B - 295 LANCASTER ST W KITCHENER Canada'
p1487
(F43.4686664
F-80.484498
tp1488
sS'4 HIGH ST WATERLOO Canada'
p1489
(F43.4840025
F-80.5288839
tp1490
sS'335 FARMERS MARKET RD WOOLWICH Canada'
p1491
(F43.5082627
F-80.5480037
tp1492
sS'14 - 525 HESPELER RD CAMBRIDGE Canada'
p1493
(F43.4012143
F-80.3251634
tp1494
sS'45 MCLAREN AVE CAMBRIDGE Canada'
p1495
(F43.360037
F-80.292197
tp1496
sS'C2 - 534 HESPELER RD CAMBRIDGE Canada'
p1497
(F43.4008288
F-80.3263437
tp1498
sS'45 OTONABEE DR KITCHENER Canada'
p1499
(F43.4110854
F-80.45213559999999
tp1500
sS'27 LYNN CRT KITCHENER Canada'
p1501
(F43.4397166
F-80.42343580000001
tp1502
sS'A1003A - 66 BRIDGEPORT RD E WATERLOO Canada'
p1503
(F43.4691798
F-80.51631119999999
tp1504
sS'2 GRAND AVE S CAMBRIDGE Canada'
p1505
(F43.358449
F-80.3175878
tp1506
sS'3, 4, 5 - 480 HESPELER RD CAMBRIDGE Canada'
p1507
(F43.3980952
F-80.3261879
tp1508
sS'1895 SAWMILL RD CONESTOGO Canada'
p1509
(F43.5410581
F-80.50474919999999
tp1510
sS'101 DUNDAS ST S S CAMBRIDGE Canada'
p1511
(F43.356846
F-80.29033
tp1512
sS'14 DUKE ST E KITCHENER Canada'
p1513
(F43.450733
F-80.4877386
tp1514
sS'108 - 215 HIGHLAND RD W KITCHENER Canada'
p1515
(F43.4401506
F-80.5067663
tp1516
sS'749 KING ST E CAMBRIDGE Canada'
p1517
(F43.3955168
F-80.3574146
tp1518
sS'24 NORTHUMBERLAND ST AYR Canada'
p1519
(F43.2859309
F-80.4512891
tp1520
sS'132 AHRENS ST W KITCHENER Canada'
p1521
(F43.4578855
F-80.4931165
tp1522
sS'4 - 347 ERB STREET W WATERLOO Canada'
p1523
(F43.45467499999999
F-80.54589
tp1524
sS'200 PRESTON PKY CAMBRIDGE Canada'
p1525
(F43.3996748
F-80.37604449999999
tp1526
sS'11 - 170 UNIVERSITY AVE W WATERLOO Canada'
p1527
(F43.4718401
F-80.53888069999999
tp1528
sS'20 - 170 UNIVERSITY AVE W WATERLOO Canada'
p1529
(F43.4718401
F-80.53888069999999
tp1530
sS'26 EVENING STAR LANE CONESTOGO Canada'
p1531
(F43.5401131
F-80.5085262
tp1532
sS'56 KING ST N WATERLOO Canada'
p1533
(F43.4670204
F-80.5227058
tp1534
sS'15 - 255 KING ST N WATERLOO Canada'
p1535
(F43.4773047
F-80.5257335
tp1536
sS'70 TRILLIUM DR KITCHENER Canada'
p1537
(F43.399167
F-80.4575739
tp1538
sS'127 ERB ST W WATERLOO Canada'
p1539
(F43.462153
F-80.5299493
tp1540
sS'226 WOOLWICH ST S BRESLAU Canada'
p1541
(F43.47108250000001
F-80.4114567
tp1542
sS'351 MARGARET AVE KITCHENER Canada'
p1543
(F43.464902
F-80.49732
tp1544
sS'267 WEBER ST N WATERLOO Canada'
p1545
(F43.479372
F-80.52176899999999
tp1546
sS'301 WATER ST S S CAMBRIDGE Canada'
p1547
(F43.3392794
F-80.3128476
tp1548
sS'4 - 525 HIGHLAND RD W KITCHENER Canada'
p1549
(F43.43516049999999
F-80.5151336
tp1550
sS'7 - 1400 WEBER ST E KITCHENER Canada'
p1551
(F43.4331827
F-80.4390667
tp1552
sS'1 - 480 HESPELER RD CAMBRIDGE Canada'
p1553
(F43.3980952
F-80.3261879
tp1554
sS'3 - 1453 KING ST E CAMBRIDGE Canada'
p1555
(F43.3905147
F-80.34755419999999
tp1556
sS'190 WEBER ST N WATERLOO Canada'
p1557
(F43.476341
F-80.516926
tp1558
sS'164 VICTORIA ST N KITCHENER Canada'
p1559
(F43.455928
F-80.4911879
tp1560
sS'11 - 255 KING ST N WATERLOO Canada'
p1561
(F43.4773047
F-80.5257335
tp1562
sS'106 - 301 KING ST E KITCHENER Canada'
p1563
(F43.4475684
F-80.4843025
tp1564
sS'7 - 255 KING ST N N WATERLOO Canada'
p1565
(F43.4773047
F-80.5257335
tp1566
sS'210 ELGIN ST N N CAMBRIDGE Canada'
p1567
(F43.3707816
F-80.3021756
tp1568
sS'12 - 324 HIGHLAND RD W KITCHENER Canada'
p1569
(F43.4392797
F-80.5101095
tp1570
sS'B11 - 1400 OTTAWA ST S KITCHENER Canada'
p1571
(F43.4156309
F-80.515221
tp1572
sS'47 KING ST N WATERLOO Canada'
p1573
(F43.4664364
F-80.5228771
tp1574
sS'51 KING ST N WATERLOO Canada'
p1575
(F43.4666534
F-80.52288109999999
tp1576
sS'105 - 1020 OTTAWA ST N KITCHENER Canada'
p1577
(F43.4518269
F-80.4436882
tp1578
sS'7 MELVILLE ST S CAMBRIDGE Canada'
p1579
(F43.3582922
F-80.3167776
tp1580
sS"118 SNYDER'S RD E BADEN Canada"
p1581
(F43.4045774
F-80.6633497
tp1582
sS'7 - 95 SAGINAW PKY CAMBRIDGE Canada'
p1583
(F43.391019
F-80.300614
tp1584
sS'21 CAMERON ST S KITCHENER Canada'
p1585
(F43.44532540000001
F-80.48124779999999
tp1586
sS'400 CONESTOGA BLVD CAMBRIDGE Canada'
p1587
(F43.3920097
F-80.316119
tp1588
sS'140 ST ANDREWS ST CAMBRIDGE Canada'
p1589
(F43.3522932
F-80.3242226
tp1590
sS'3-35 UNIVERSITY AVE E WATERLOO Canada'
p1591
(F43.476002
F-80.521574
tp1592
sS'1171 KOSSUTH RD WOOLWICH Canada'
p1593
(F43.462553
F-80.340289
tp1594
sS'3165 HURON RD WILMOT Canada'
p1595
(F43.3553813
F-80.6430306
tp1596
sS'693 CORONATION BLVD CAMBRIDGE Canada'
p1597
(F43.379973
F-80.3291374
tp1598
sS'916 KING ST E CAMBRIDGE Canada'
p1599
(F43.3940089
F-80.355435
tp1600
sS'119 MAIN ST NEW DUNDEE Canada'
p1601
(F43.35161600000001
F-80.5363311
tp1602
sS'1211 QUEENS BUSH RD WELLESLEY Canada'
p1603
(F43.4775723
F-80.76523999999999
tp1604
sS'334 WESTMINSTER DR N CAMBRIDGE Canada'
p1605
(F43.3981093
F-80.3561856
tp1606
sS'41 - 130 CEDAR ST S CAMBRIDGE Canada'
p1607
(F43.35174869999999
F-80.3278622
tp1608
sS'150 ROGER WATERLOO Canada'
p1609
(F43.4627242
F-80.5071549
tp1610
sS'54 BENTON ST KITCHENER Canada'
p1611
(F43.448106
F-80.489013
tp1612
sS'10 - 248 STIRLING AVE S KITCHENER Canada'
p1613
(F43.4409271
F-80.4858998
tp1614
sS'2890 VICTORIA ST N WOOLWICH Canada'
p1615
(F43.502497
F-80.38202799999999
tp1616
sS'1453 KING ST E CAMBRIDGE Canada'
p1617
(F43.3905147
F-80.34755419999999
tp1618
sS'1 - 300 GAGE AVE KITCHENER Canada'
p1619
(F43.4457166
F-80.5171891
tp1620
sS'6 - 101 HAZELGLEN DR KITCHENER Canada'
p1621
(F43.4399243
F-80.5270231
tp1622
sS'8 WILLIAM ST E WATERLOO Canada'
p1623
(F43.46225099999999
F-80.5210309
tp1624
sS'104 - 325 MAX BECKER DR KITCHENER Canada'
p1625
(F43.4048861
F-80.50085969999999
tp1626
sS'33 ERB ST W WATERLOO Canada'
p1627
(F43.4647764
F-80.5238181
tp1628
sS'651 CONCESSION RD CAMBRIDGE Canada'
p1629
(F43.401113
F-80.34562199999999
tp1630
sS'24 - 450 WESTHEIGHTS DR KITCHENER Canada'
p1631
(F43.417798
F-80.5356
tp1632
sS'369 FREDERICK ST KITCHENER Canada'
p1633
(F43.456487
F-80.47446599999999
tp1634
sS'5 - 28 QUEEN ST W CAMBRIDGE Canada'
p1635
(F43.4307521
F-80.3119849
tp1636
sS'185 KING ST W KITCHENER Canada'
p1637
(F43.4509053
F-80.4925751
tp1638
sS'100 WEAVER ST CAMBRIDGE Canada'
p1639
(F43.423859
F-80.3177185
tp1640
sS'2 - 471 HESPELER RD CAMBRIDGE Canada'
p1641
(F43.3978604
F-80.3235917
tp1642
sS'674 KING ST E KITCHENER Canada'
p1643
(F43.4448966
F-80.4783109
tp1644
sS'1004 CATHERINE ST WELLESLEY Canada'
p1645
(F43.4758684
F-80.7609674
tp1646
sS'264 VICTORIA ST N KITCHENER Canada'
p1647
(F43.4575781
F-80.4867447
tp1648
sS'933 VICTORIA ST N KITCHENER Canada'
p1649
(F43.464037
F-80.463954
tp1650
sS'29 - 200 FRANKLIN BLVD CAMBRIDGE Canada'
p1651
(F43.3569027
F-80.2893036
tp1652
sS'54B - 875 HIGHLAND RD W KITCHENER Canada'
p1653
(F43.4297511
F-80.5264626
tp1654
sS'1600 RIVER RD E KITCHENER Canada'
p1655
(F43.4296952
F-80.4215059
tp1656
sS'75 KING ST S WATERLOO Canada'
p1657
(F43.46360980000001
F-80.5235285
tp1658
sS'3 BYRON ST NEW HAMBURG Canada'
p1659
(F43.3782698
F-80.7149402
tp1660
sS'329 GLASGOW ST KITCHENER Canada'
p1661
(F43.4499487
F-80.5214981
tp1662
sS'1 KING ST W KITCHENER Canada'
p1663
(F43.4498147
F-80.48952530000001
tp1664
sS'470 KING ST E KITCHENER Canada'
p1665
(F43.446532
F-80.481312
tp1666
sS'1077 WEBER ST E KITCHENER Canada'
p1667
(F43.435106
F-80.45062999999999
tp1668
sS'6A - 209 PINEBUSH RD CAMBRIDGE Canada'
p1669
(F43.4109777
F-80.3089164
tp1670
sS'595 HESPELER RD CAMBRIDGE Canada'
p1671
(F43.404418
F-80.32610199999999
tp1672
sS'54 GRAND AVE N CAMBRIDGE Canada'
p1673
(F43.360981
F-80.3178605
tp1674
sS'6 DUKE ST E KITCHENER Canada'
p1675
(F43.45076359999999
F-80.48801619999999
tp1676
sS'5 - 304 ST ANDREWS ST CAMBRIDGE Canada'
p1677
(F43.34396599999999
F-80.3321349
tp1678
sS'597 KING ST N WATERLOO Canada'
p1679
(F43.502519
F-80.535225
tp1680
sS'14 - 370 HIGHLAND RD W KITCHENER Canada'
p1681
(F43.4387033
F-80.51184719999999
tp1682
sS'200 FRANKLIN BLVD CAMBRIDGE Canada'
p1683
(F43.3569027
F-80.2893036
tp1684
sS'749 GRAND VALLEY DR CAMBRIDGE Canada'
p1685
(F43.390318
F-80.3353417
tp1686
sS'14 - 255 KING ST N WATERLOO Canada'
p1687
(F43.4773047
F-80.5257335
tp1688
sS'11 - 100 JAMIESON PKY CAMBRIDGE Canada'
p1689
(F43.41734080000001
F-80.3087175
tp1690
sS'52 STIRLING MACGREGOR DR CAMBRIDGE Canada'
p1691
(F43.334867
F-80.32887199999999
tp1692
sS'300 KING ST N WATERLOO Canada'
p1693
(F43.4783595
F-80.5250329
tp1694
sS'1 - 210 PINEBUSH RD CAMBRIDGE Canada'
p1695
(F43.411948
F-80.3092705
tp1696
sS'589 FAIRWAY RD S KITCHENER Canada'
p1697
(F43.4195716
F-80.4474237
tp1698
sS'11 HERBERT ST ELMIRA Canada'
p1699
(F43.6018041
F-80.5638226
tp1700
sS'927 KING ST E CAMBRIDGE Canada'
p1701
(F43.3943141
F-80.35507659999999
tp1702
sS'1145 CONCESSION RD CAMBRIDGE Canada'
p1703
(F43.3964575
F-80.3447513
tp1704
sS'31 DUNDAS ST S S CAMBRIDGE Canada'
p1705
(F43.3571707
F-80.2911302
tp1706
sS'305 LANCASTER ST W KITCHENER Canada'
p1707
(F43.4692203
F-80.48434859999999
tp1708
sS'245 LORNE AVE KITCHENER Canada'
p1709
(F43.433874
F-80.492392
tp1710
sS'24 FORWELL CREEK RD WATERLOO Canada'
p1711
(F43.486349
F-80.5244182
tp1712
sS'161 STIRLING AVE S KITCHENER Canada'
p1713
(F43.4420319
F-80.4824837
tp1714
sS'A - 376 VICTORIA ST N KITCHENER Canada'
p1715
(F43.4593032
F-80.4815856
tp1716
sS'C - 12 QUEEN ST E E CAMBRIDGE Canada'
p1717
(F43.431359
F-80.310169
tp1718
sS'75 PEBBLECREEK DR KITCHENER Canada'
p1719
(F43.449006
F-80.4111753
tp1720
sS'3 - 258 KING ST N WATERLOO Canada'
p1721
(F43.4770643
F-80.5247756
tp1722
sS'534 HESPELER RD CAMBRIDGE Canada'
p1723
(F43.4008288
F-80.3263437
tp1724
sS'235 IRA NEEDLES BLVD KITCHENER Canada'
p1725
(F43.4255117
F-80.55366339999999
tp1726
sS'3 REGINA ST N WATERLOO Canada'
p1727
(F43.4657569
F-80.5221353
tp1728
sS'250 DUNDAS ST S S CAMBRIDGE Canada'
p1729
(F43.35447600000001
F-80.2888099
tp1730
sS'22 OTTAWA ST S S KITCHENER Canada'
p1731
(F43.441485
F-80.47247
tp1732
sS'10 - 115 SALTSMAN DR CAMBRIDGE Canada'
p1733
(F43.4212563
F-80.3811065
tp1734
sS'402 KING ST N N WATERLOO Canada'
p1735
(F43.484483
F-80.52628
tp1736
sS'650 MOUNTAIN MAPLE AVE WATERLOO Canada'
p1737
(F43.464782
F-80.591225
tp1738
sS"1200 QUEEN'S BUSH RD WELLESLEY Canada"
p1739
(F43.477526
F-80.7650208
tp1740
sS'75 DUNDAS ST N N CAMBRIDGE Canada'
p1741
(F43.3586302
F-80.2914488
tp1742
sS'5 - 29 KING ST E KITCHENER Canada'
p1743
(F43.449451
F-80.48849969999999
tp1744
sS'317 FRANKLIN ST N KITCHENER Canada'
p1745
(F43.442499
F-80.446832
tp1746
sS'135 - 600 LAURELWOOD DR WATERLOO Canada'
p1747
(F43.4715521
F-80.59288939999999
tp1748
sS'210 NORTHUMBERLAND ST AYR Canada'
p1749
(F43.2918942
F-80.45953779999999
tp1750
sS'A - 83 ARTHUR ST S ELMIRA Canada'
p1751
(F43.5972436
F-80.5596291
tp1752
sS'9 - 250 DUNDAS ST S S CAMBRIDGE Canada'
p1753
(F43.35447600000001
F-80.2888099
tp1754
sS'598 LANCASTER ST W KITCHENER Canada'
p1755
(F43.4808986
F-80.4831074
tp1756
sS'15 CHARLES ST W KITCHENER Canada'
p1757
(F43.4493439
F-80.4924059
tp1758
sS'4 - 825 WEBER ST E E KITCHENER Canada'
p1759
(F43.4379781
F-80.4591665
tp1760
sS'25 PARK HILL RD W CAMBRIDGE Canada'
p1761
(F43.3626759
F-80.318604
tp1762
sS'499 HESPELER RD CAMBRIDGE Canada'
p1763
(F43.398568
F-80.324806
tp1764
sS'466 QUEEN ST S KITCHENER Canada'
p1765
(F43.4450934
F-80.49528269999999
tp1766
sS'835 KING ST W KITCHENER Canada'
p1767
(F43.4562423
F-80.51244439999999
tp1768
sS'4 - 385 WATERLOO ST NEW HAMBURG Canada'
p1769
(F43.3870722
F-80.71098099999999
tp1770
sS'574 LANCASTER ST W KITCHENER Canada'
p1771
(F43.479719
F-80.48404099999999
tp1772
sS'232 ARTHUR ST S ELMIRA Canada'
p1773
(F43.5895821
F-80.5619569
tp1774
sS'A - 11 FOUNDRY ST BADEN Canada'
p1775
(F43.4034452
F-80.6685402
tp1776
sS'1 - 355 ERB ST W WATERLOO Canada'
p1777
(F43.4544498
F-80.5465469
tp1778
sS'8 - 100 JAMIESON PKWY CAMBRIDGE Canada'
p1779
(F43.41734080000001
F-80.3087175
tp1780
sS'1 - 175 WATERLOO ST NEW HAMBURG Canada'
p1781
(F43.3814143
F-80.7145148
tp1782
sS'5 MANITOU DR KITCHENER Canada'
p1783
(F43.4181002
F-80.4540932
tp1784
sS'247 KING ST N WATERLOO Canada'
p1785
(F43.47627929999999
F-80.52560079999999
tp1786
sS'4 PARK HILL RD W W CAMBRIDGE Canada'
p1787
(F43.3628746
F-80.31768000000001
tp1788
sS'B 402 KING ST N WATERLOO Canada'
p1789
(F43.484483
F-80.52628
tp1790
sS'499 LANCASTER ST W W KITCHENER Canada'
p1791
(F43.4762197
F-80.4849344
tp1792
sS'82 KING ST W KITCHENER Canada'
p1793
(F43.450542
F-80.490619
tp1794
sS'10 DOLMAN STREET BRESLAU Canada'
p1795
(F43.4785835
F-80.4148479
tp1796
sS'60 WESTHEIGHTS DR KITCHENER Canada'
p1797
(F43.428507
F-80.529742
tp1798
sS'45 INDUSTRIAL DR ELMIRA Canada'
p1799
(F43.5866942
F-80.561067
tp1800
sS'2 - 8 BLOOMINGDALE RD N KITCHENER Canada'
p1801
(F43.4807938
F-80.4774339
tp1802
sS'172 KING ST E CAMBRIDGE Canada'
p1803
(F43.3990776
F-80.3650236
tp1804
sS'5 - 20 NORTHUMBERLAND ST AYR Canada'
p1805
(F43.2857337
F-80.4511946
tp1806
sS'101 - 2 QUEEN ST E CAMBRIDGE Canada'
p1807
(F43.4312502
F-80.3106823
tp1808
sS'108 - 1400 OTTAWA ST S KITCHENER Canada'
p1809
(F43.4156309
F-80.515221
tp1810
sS'611 DUNBAR RD CAMBRIDGE Canada'
p1811
(F43.3878235
F-80.3376103
tp1812
sS'550 KING ST N WATERLOO Canada'
p1813
(F43.4977272
F-80.52832579999999
tp1814
sS'504 DUNDAS ST N CAMBRIDGE Canada'
p1815
(F43.3725277
F-80.31731769999999
tp1816
sS'10 KING ST S WATERLOO Canada'
p1817
(F43.4649897
F-80.52199809999999
tp1818
sS'9 - 585 WEBER ST N WATERLOO Canada'
p1819
(F43.4965128
F-80.55074350000001
tp1820
sS'1750 KING ST E CAMBRIDGE Canada'
p1821
(F43.3882085
F-80.3433234
tp1822
sS'809 WELLINGTON ST N KITCHENER Canada'
p1823
(F43.4634242
F-80.4748632
tp1824
sS'101 DUNDAS ST S CAMBRIDGE Canada'
p1825
(F43.356846
F-80.29033
tp1826
sS'1427 GINGERICH RD BADEN Canada'
p1827
(F43.3958419
F-80.6634353
tp1828
sS'34 KING ST S WATERLOO Canada'
p1829
(F43.4645623
F-80.5218647
tp1830
sS'28 KING ST N WATERLOO Canada'
p1831
(F43.4658779
F-80.5221679
tp1832
sS'450 KING ST N WATERLOO Canada'
p1833
(F43.48747119999999
F-80.5263265
tp1834
sS'124 HOFFMAN ST KITCHENER Canada'
p1835
(F43.431603
F-80.484651
tp1836
sS'607 KING ST W KITCHENER Canada'
p1837
(F43.4532862
F-80.50134919999999
tp1838
sS'A - 3677 NAFZIGER RD WELLESLEY Canada'
p1839
(F43.4752604
F-80.7641907
tp1840
sS'2492 CEDAR CREEK RD North Dumfries Canada'
p1841
(F43.3341593
F-80.4313555
tp1842
sS'24 - 1601 RIVER RD E KITCHENER Canada'
p1843
(F43.428365
F-80.421381
tp1844
sS'92 NORTHUMBERLAND ST AYR Canada'
p1845
(F43.2900808
F-80.45621539999999
tp1846
sS'3 - 239 WEBER ST N WATERLOO Canada'
p1847
(F43.477305
F-80.519789
tp1848
sS'7 - 180 HOLIDAY INN DR CAMBRIDGE Canada'
p1849
(F43.4156103
F-80.3239553
tp1850
sS'136 WEBER ST S S WATERLOO Canada'
p1851
(F43.465255
F-80.504609
tp1852
sS'287 KING ST E E KITCHENER Canada'
p1853
(F43.4477414
F-80.4845012
tp1854
sS'210 KING ST E CAMBRIDGE Canada'
p1855
(F43.398896
F-80.36438480000001
tp1856
sS'870 TOWNLINE RD CAMBRIDGE Canada'
p1857
(F43.3981865
F-80.27375959999999
tp1858
sS'190 GATEWAY PARK DR KITCHENER Canada'
p1859
(F43.4049004
F-80.3854891
tp1860
sS'101 WHITNEY PL KITCHENER Canada'
p1861
(F43.44224699999999
F-80.490133
tp1862
sS'1400 OTTAWA ST S KITCHENER Canada'
p1863
(F43.4156309
F-80.515221
tp1864
sS'299 DOON VALLEY DR KITCHENER Canada'
p1865
(F43.3892703
F-80.4041565
tp1866
sS'11 - 465 PHILLIP ST WATERLOO Canada'
p1867
(F43.484427
F-80.5408376
tp1868
sS'2167 FLORADALE RD FLORADALE Canada'
p1869
(F43.6311577
F-80.579684
tp1870
sS'85 UNIVERSITY AVE E WATERLOO Canada'
p1871
(F43.478162
F-80.51868999999999
tp1872
sS'8 SNYDER AVE N ELMIRA Canada'
p1873
(F43.6010206
F-80.5631329
tp1874
sS'3 - 324 HIGHLAND RD W KITCHENER Canada'
p1875
(F43.4392797
F-80.5101095
tp1876
sS'588 HESPELER RD CAMBRIDGE Canada'
p1877
(F43.4043516
F-80.32702379999999
tp1878
sS'501 KRUG ST KITCHENER Canada'
p1879
(F43.4563412
F-80.4616314
tp1880
sS'1A-B - 247 KING ST N WATERLOO Canada'
p1881
(F43.47627929999999
F-80.52560079999999
tp1882
sS'48 KING ST W KITCHENER Canada'
p1883
(F43.450396
F-80.489818
tp1884
sS'1405 OTTAWA ST N KITCHENER Canada'
p1885
(F43.4561236
F-80.4297315
tp1886
sS'8 - 247 KING ST N WATERLOO Canada'
p1887
(F43.47627929999999
F-80.52560079999999
tp1888
sS'190 WESTMOUNT RD N WATERLOO Canada'
p1889
(F43.4676552
F-80.5464553
tp1890
sS'280 LANCASTER ST W KITCHENER Canada'
p1891
(F43.468169
F-80.483966
tp1892
sS'805 KING ST N WOOLWICH Canada'
p1893
(F43.5117649
F-80.55121299999999
tp1894
sS'301 WATER ST S CAMBRIDGE Canada'
p1895
(F43.3392794
F-80.3128476
tp1896
sS'1 - 101 HAZELGLEN DR KITCHENER Canada'
p1897
(F43.4399243
F-80.5270231
tp1898
sS'274 HIGHLAND RD W KITCHENER Canada'
p1899
(F43.4398667
F-80.5091951
tp1900
sS'3250 HESSEN STRASSE ST WELLESLEY Canada'
p1901
(F43.5033789
F-80.6373502
tp1902
sS'2500 KOSSUTH RD CAMBRIDGE Canada'
p1903
(F43.4517703
F-80.36706819999999
tp1904
sS'17 - 248 STIRLING AVE S S KITCHENER Canada'
p1905
(F43.4409271
F-80.4858998
tp1906
sS'53 HILLSIDE AVE BROWN Canada'
p1907
(F45.3327531
F-79.134963
tp1908
sS'1426 WEBER ST E KITCHENER Canada'
p1909
(F43.4323353
F-80.43864289999999
tp1910
sS'40 KING ST S WATERLOO Canada'
p1911
(F43.4645018
F-80.5218488
tp1912
sS'550 CHESAPEAKE DR WATERLOO Canada'
p1913
(F43.5091888
F-80.50444639999999
tp1914
sS'325 - 355 HESPELER RD CAMBRIDGE Canada'
p1915
(F43.39311499999999
F-80.3196776
tp1916
sS'14 - 383 ELGIN ST N CAMBRIDGE Canada'
p1917
(F43.3791564
F-80.3065268
tp1918
sS'655 FAIRWAY RD S KITCHENER Canada'
p1919
(F43.4188335
F-80.44995899999999
tp1920
sS'1656 SNYDERS RD E PETERSBURG Canada'
p1921
(F43.41340599999999
F-80.605817
tp1922
sS'1500 WEBER ST E KITCHENER Canada'
p1923
(F43.4311109
F-80.43726439999999
tp1924
sS'140 KING ST W KITCHENER Canada'
p1925
(F43.45094
F-80.491558
tp1926
sS'6640 FIFE RD WOOLWICH Canada'
p1927
(F43.4822712
F-80.32667719999999
tp1928
sS'C - 50 ONTARIO ST S KITCHENER Canada'
p1929
(F43.449701
F-80.491079
tp1930
sS'B - 84 KING ST N N WATERLOO Canada'
p1931
(F43.4680417
F-80.5229389
tp1932
sS'244 ELGIN ST N CAMBRIDGE Canada'
p1933
(F43.37191199999999
F-80.3028889
tp1934
sS'504 CONNAUGHT ST KITCHENER Canada'
p1935
(F43.428888
F-80.445745
tp1936
sS'11 CHOPIN DR KITCHENER Canada'
p1937
(F43.44296629999999
F-80.5234298
tp1938
sS'306 KING ST W KITCHENER Canada'
p1939
(F43.4518294
F-80.4948297
tp1940
sS'F10 - 550 KING ST N WATERLOO Canada'
p1941
(F43.4977272
F-80.52832579999999
tp1942
sS'245 LEXINGTON RD WATERLOO Canada'
p1943
(F43.4933908
F-80.511629
tp1944
sS'752 KING ST E CAMBRIDGE Canada'
p1945
(F43.39533549999999
F-80.3574227
tp1946
sS'700 STRASBURG RD KITCHENER Canada'
p1947
(F43.413301
F-80.477723
tp1948
sS'635 HAWKESVILLE RD WOOLWICH Canada'
p1949
(F43.546277
F-80.595145
tp1950
sS'50 SCHEIFELE PL BRESLAU Canada'
p1951
(F43.4796865
F-80.418433
tp1952
sS'385 FREDERICK ST KITCHENER Canada'
p1953
(F43.4572411
F-80.47335249999999
tp1954
sS'555 ELLIS RD W W CAMBRIDGE Canada'
p1955
(F43.4286529
F-80.29434619999999
tp1956
sS'234 KEHL ST KITCHENER Canada'
p1957
(F43.4294523
F-80.4823282
tp1958
sS'D - 645 LAURELWOOD DR WATERLOO Canada'
p1959
(F43.4707272
F-80.5931956
tp1960
sS'280 GLENRIDGE DR WATERLOO Canada'
p1961
(F43.483318
F-80.510216
tp1962
sS'132 GRAND AVE S CAMBRIDGE Canada'
p1963
(F43.3518557
F-80.316991
tp1964
sS'265 WESTMOUNT RD N WATERLOO Canada'
p1965
(F43.4678612
F-80.5495499
tp1966
sS'47B KING ST N WATERLOO Canada'
p1967
(F43.4664364
F-80.5228771
tp1968
sS'3 - 368 QUEEN ST W CAMBRIDGE Canada'
p1969
(F43.4231679
F-80.323824
tp1970
sS'47 DICKSON ST CAMBRIDGE Canada'
p1971
(F43.359666
F-80.312659
tp1972
sS'256 KING ST N WATERLOO Canada'
p1973
(F43.4766914
F-80.52477979999999
tp1974
sS'278 BALDWIN DR CAMBRIDGE Canada'
p1975
(F43.446876
F-80.3066375
tp1976
sS'54 ARTHUR ST S ELMIRA Canada'
p1977
(F43.5983907
F-80.5595499
tp1978
sS'F4 - 550 KING ST N WATERLOO Canada'
p1979
(F43.4977272
F-80.52832579999999
tp1980
sS'22 - 160 UNIVERSITY AVE W W WATERLOO Canada'
p1981
(F43.472285
F-80.5380519
tp1982
sS'107 - 1515 KING ST E CAMBRIDGE Canada'
p1983
(F43.390218
F-80.345792
tp1984
sS'703 BELMONT AVE W KITCHENER Canada'
p1985
(F43.453656
F-80.51855499999999
tp1986
sS'A - 645 LAURELWOOD DR WATERLOO Canada'
p1987
(F43.4707272
F-80.5931956
tp1988
sS'139 QUEEN ST W CAMBRIDGE Canada'
p1989
(F43.428973
F-80.31630799999999
tp1990
sS'1277 BRIDGE ST NEW HAMBURG Canada'
p1991
(F43.33421999999999
F-80.6348852
tp1992
sS'29 MAIN ST CAMBRIDGE Canada'
p1993
(F43.3587698
F-80.3147484
tp1994
sS'A - 298 HIGHLAND RD E KITCHENER Canada'
p1995
(F43.4354763
F-80.4898652
tp1996
sS'385 WATERLOO ST   UNIT 5 NEW HAMBURG Canada'
p1997
(F43.3870722
F-80.71098099999999
tp1998
sS'705 BELMONT AVE W KITCHENER Canada'
p1999
(F43.453695
F-80.51858299999999
tp2000
sS'13 - 385 FREDERICK ST KITCHENER Canada'
p2001
(F43.4572411
F-80.47335249999999
tp2002
sS'370 EASTBRIDGE BLVD WATERLOO Canada'
p2003
(F43.5042883
F-80.5090196
tp2004
sS'24 - 700 STRASBURG RD KITCHENER Canada'
p2005
(F43.413301
F-80.477723
tp2006
sS'31 & 33 - 200 FRANKLIN BLVD CAMBRIDGE Canada'
p2007
(F43.2755319
F-82.534364
tp2008
sS'61 AINSLIE ST S CAMBRIDGE Canada'
p2009
(F43.356416
F-80.31347
tp2010
sS'1202 NORTHUMBERLAND ST North Dumfries Canada'
p2011
(F43.304837
F-80.4706829
tp2012
sS'2006 SHANTZ STATION RD WOOLWICH Canada'
p2013
(F43.50016249999999
F-80.3798678
tp2014
sS'3171 BLEAMS RD WILMOT Canada'
p2015
(F43.3730975
F-80.6646554
tp2016
sS'90 KING ST N N WATERLOO Canada'
p2017
(F43.4682053
F-80.52300079999999
tp2018
sS'500 FISCHER-HALLMAN RD N WATERLOO Canada'
p2019
(F43.4702578
F-80.5685711
tp2020
sS'200 BOULLEE ST NEW HAMBURG Canada'
p2021
(F43.3803989
F-80.7012912
tp2022
sS'70 - 1005 OTTAWA ST N KITCHENER Canada'
p2023
(F43.4492215
F-80.44550749999999
tp2024
sS'327 KING ST W KITCHENER Canada'
p2025
(F43.4517986
F-80.49519339999999
tp2026
sS'1738 QUEEN ST WILMOT Canada'
p2027
(F43.3701214
F-80.5583145
tp2028
sS'600 LAURELWOOD DR WATERLOO Canada'
p2029
(F43.4715521
F-80.59288939999999
tp2030
sS'7480 LINE 86 WELLESLEY Canada'
p2031
(F43.6058709
F-80.65008279999999
tp2032
sS'362 KING ST N WATERLOO Canada'
p2033
(F43.4817885
F-80.52569369999999
tp2034
sS'410 THE BOARDWALK WATERLOO Canada'
p2035
(F43.4393756
F-80.5632622
tp2036
sS'505 HESPELER RD CAMBRIDGE Canada'
p2037
(F43.3992207
F-80.3246559
tp2038
sS'1732 KING ST E KITCHENER Canada'
p2039
(F43.4379383
F-80.46044119999999
tp2040
sS'200 STIRLING MACGREGOR DR CAMBRIDGE Canada'
p2041
(F43.3388493
F-80.3324358
tp2042
sS'8 - 900 JAMIESON PKY CAMBRIDGE Canada'
p2043
(F43.4246734
F-80.2855609
tp2044
sS'55 MCKAY ST CAMBRIDGE Canada'
p2045
(F43.3467187
F-80.30636559999999
tp2046
sS'100 DUNDAS ST S CAMBRIDGE Canada'
p2047
(F43.356255
F-80.2910689
tp2048
sS'807 GUELPH ST KITCHENER Canada'
p2049
(F43.465837
F-80.482006
tp2050
sS'75 KING ST S S WATERLOO Canada'
p2051
(F43.46360980000001
F-80.5235285
tp2052
sS'2 - 11 WESTWOOD DR KITCHENER Canada'
p2053
(F43.446074
F-80.523549
tp2054
sS'300 MAPLE GROVE RD CAMBRIDGE Canada'
p2055
(F43.4222383
F-80.3868404
tp2056
sS'75 BRIDGEPORT RD E WATERLOO Canada'
p2057
(F43.46857989999999
F-80.5156442
tp2058
sS'368 QUEEN ST W CAMBRIDGE Canada'
p2059
(F43.4231679
F-80.323824
tp2060
sS'6  - 1000 BISHOP ST N CAMBRIDGE Canada'
p2061
(F43.3936945
F-80.3310341
tp2062
sS'3101 KINGSWAY DR KITCHENER Canada'
p2063
(F43.423008
F-80.443933
tp2064
sS'3215 ROSEVILLE RD Roseville Canada'
p2065
(F43.3411465
F-80.47667489999999
tp2066
sS'225 LABRADOR DR WATERLOO Canada'
p2067
(F43.512015
F-80.517393
tp2068
sS'54 EBY ST ST. JACOBS Canada'
p2069
(F43.540888
F-80.54914
tp2070
sS'130 WOODBINE AVE KITCHENER Canada'
p2071
(F43.3880361
F-80.48521
tp2072
sS'230 CEDARBRAE AVE WATERLOO Canada'
p2073
(F43.48721279999999
F-80.5508554
tp2074
sS"2A - 1651 ERB'S RD ST. AGATHA Canada"
p2075
(F43.43531489999999
F-80.6238505
tp2076
sS'123 PIONEER DR KITCHENER Canada'
p2077
(F43.3938433
F-80.4320595
tp2078
sS'429 OTTAWA ST S KITCHENER Canada'
p2079
(F43.4315337
F-80.4793437
tp2080
sS'31 MAIN ST CAMBRIDGE Canada'
p2081
(F43.3587675
F-80.3146926
tp2082
sS'A - 740 BELMONT AVE W KITCHENER Canada'
p2083
(F43.4543182
F-80.5186427
tp2084
sS'N15 - 2960 KINGSWAY DR KITCHENER Canada'
p2085
(F43.4246563
F-80.4390377
tp2086
sS'2980 KING ST E KITCHENER Canada'
p2087
(F43.4290777
F-80.43276279999999
tp2088
sS'6D - 75 DUNDAS ST CAMBRIDGE Canada'
p2089
(F43.3586335
F-80.2914365
tp2090
sS'780 HIGHLAND RD W KITCHENER Canada'
p2091
(F43.43230399999999
F-80.525266
tp2092
sS'624 KING ST W KITCHENER Canada'
p2093
(F43.454469
F-80.5021189
tp2094
sS'600 HESPELER RD CAMBRIDGE Canada'
p2095
(F43.4040703
F-80.32911759999999
tp2096
sS'1144 HAMILTON ST CAMBRIDGE Canada'
p2097
(F43.3914883
F-80.3550645
tp2098
sS'4645 LICHTY RD WELLESLEY Canada'
p2099
(F43.6249042
F-80.72033880000001
tp2100
sS'7278 LINE 86 WALLENSTEIN Canada'
p2101
(F43.5997704
F-80.6348173
tp2102
sS'30 FAIRWAY RD S KITCHENER Canada'
p2103
(F43.4277926
F-80.43376479999999
tp2104
sS'G - 220 KING ST N WATERLOO Canada'
p2105
(F43.4752375
F-80.5243892
tp2106
sS'5 - 970 FRANKLIN BLVD CAMBRIDGE Canada'
p2107
(F43.3923249
F-80.30410359999999
tp2108
sS'281 KING ST W KITCHENER Canada'
p2109
(F43.45146
F-80.4944657
tp2110
sS'169 FRONT ST NEW DUNDEE Canada'
p2111
(F43.3516109
F-80.5356839
tp2112
sS'J - 401 WEBER ST N N WATERLOO Canada'
p2113
(F43.48414460000001
F-80.5251351
tp2114
sS'1A - 645 WESTMOUNT RD E KITCHENER Canada'
p2115
(F43.420944
F-80.503006
tp2116
sS'835 VICTORIA ST N KITCHENER Canada'
p2117
(F43.462736
F-80.46677199999999
tp2118
sS'490 PINEBUSH RD CAMBRIDGE Canada'
p2119
(F43.4155502
F-80.28839909999999
tp2120
sS"1517 SNYDER'S RD E WILMOT Canada"
p2121
(F43.4098213
F-80.6103376
tp2122
sS'29 ALBERT ST W ST. JACOBS Canada'
p2123
(F43.5396411
F-80.55566069999999
tp2124
sS'3,4,6 - 253 KING ST N WATERLOO Canada'
p2125
(F43.4766854
F-80.525453
tp2126
sS'75 UNIVERSITY AVE W WATERLOO Canada'
p2127
(F43.4743681
F-80.528046
tp2128
sS'105 PEEL ST NEW HAMBURG Canada'
p2129
(F43.3781008
F-80.7089484
tp2130
sS'210 - 1201 FISHER HALLMAN RD KIchener Canada'
p2131
(F43.4017185
F-80.49656809999999
tp2132
sS'23 - 210 LORRAINE AVE KITCHENER Canada'
p2133
(F43.46102399999999
F-80.440348
tp2134
sS'1575 VICTORIA ST N KITCHENER  Canada'
p2135
(F43.4731941
F-80.4365012
tp2136
sS'868 KING ST E CAMBRIDGE Canada'
p2137
(F43.3944175
F-80.3558772
tp2138
sS'688 HESPELER RD CAMBRIDGE Canada'
p2139
(F43.4087121
F-80.3291801
tp2140
sS'6 - 1450 BLOCK LINE RD KITCHENER Canada'
p2141
(F43.4190169
F-80.4695981
tp2142
sS"1750 ERB'S RD ST. AGATHA Canada"
p2143
(F43.4339738
F-80.63463519999999
tp2144
sS'35 - 200 FRANKLIN BLVD CAMBRIDGE Canada'
p2145
(F43.3569027
F-80.2893036
tp2146
sS'2399 KINGSWAY DR KITCHENER Canada'
p2147
(F43.433293
F-80.44876599999999
tp2148
sS'5 - 203 LESTER ST WATERLOO Canada'
p2149
(F43.472243
F-80.53329649999999
tp2150
sS'20 FIELDGATE ST KITCHENER Canada'
p2151
(F43.4129238
F-80.47714719999999
tp2152
sS'371 LAUREL ST CAMBRIDGE Canada'
p2153
(F43.4001111
F-80.3544246
tp2154
sS"1186 QUEEN'S BUSH RD WELLESLEY Canada"
p2155
(F43.4772925
F-80.7637905
tp2156
sS'757 CONCESSION  RD CAMBRIDGE Canada'
p2157
(F43.3996731
F-80.3454807
tp2158
sS'80 WESTMOUNT RD W KITCHENER Canada'
p2159
(F43.4354852
F-80.51287470000001
tp2160
sS'302 - 25 FREDERICK ST KITCHENER Canada'
p2161
(F43.4494009
F-80.48642339999999
tp2162
sS'323 KING ST W KITCHENER Canada'
p2163
(F43.4519288
F-80.4952474
tp2164
sS'3700 NAFZIGER RD WELLESLEY Canada'
p2165
(F43.4700529
F-80.76534860000001
tp2166
sS'960 KING ST E CAMBRIDGE Canada'
p2167
(F43.393563
F-80.35445
tp2168
sS'547 KING STREET N WATERLOO Canada'
p2169
(F43.4991122
F-80.5318027
tp2170
sS'270 BLEAMS RD KITCHENER Canada'
p2171
(F43.4110865
F-80.4597991
tp2172
sS'14 - 338 WATERLOO ST NEW HAMBURG Canada'
p2173
(F43.3857595
F-80.7124098
tp2174
sS'632 VICTORIA ST N KITCHENER Canada'
p2175
(F43.4605116
F-80.4766295
tp2176
sS'2321 SHANTZ STATION RD WOOLWICH Canada'
p2177
(F43.5119436
F-80.3925062
tp2178
sS'5 - 36 NORTHFIELD DR E WATERLOO Canada'
p2179
(F43.5036327
F-80.53114289999999
tp2180
sS"530 LANG'S DR CAMBRIDGE Canada"
p2181
(F43.398369
F-80.341928
tp2182
sS'204 SAMUELSON ST CAMBRIDGE Canada'
p2183
(F43.370584
F-80.303457
tp2184
sS'2513 GREENWOOD HILL RD WELLESLEY Canada'
p2185
(F43.5241109
F-80.7431458
tp2186
sS'2238 FLORADALE RD FLORADALE Canada'
p2187
(F43.6340721
F-80.58036249999999
tp2188
sS'100 KING ST S WATERLOO Canada'
p2189
(F43.4629524
F-80.52152939999999
tp2190
sS'590 RIVERBEND RD KITCHENER Canada'
p2191
(F43.4760496
F-80.48036979999999
tp2192
sS'280 VICTORIA ST S KITCHENER Canada'
p2193
(F43.44506800000001
F-80.506585
tp2194
sS'967 KING ST E KITCHENER Canada'
p2195
(F43.4425733
F-80.4738057
tp2196
sS'110 MAIN ST CAMBRIDGE Canada'
p2197
(F43.3589932
F-80.3124562
tp2198
sS'25 SPORTSWORLD DR KITCHENER Canada'
p2199
(F43.4072109
F-80.39362500000001
tp2200
sS'150 MAIN ST CAMBRIDGE Canada'
p2201
(F43.3591307
F-80.3101683
tp2202
sS'4 VETERANS WAY S CAMBRIDGE Canada'
p2203
(F43.35498399999999
F-80.31434100000001
tp2204
sS'2979 KING ST E KITCHENER Canada'
p2205
(F43.42848559999999
F-80.4335254
tp2206
sS'12 - 151 CHARLES ST W KITCHENER Canada'
p2207
(F43.45093809999999
F-80.4982637
tp2208
sS'7 NORFOLK AVE CAMBRIDGE Canada'
p2209
(F43.376268
F-80.317577
tp2210
sS'70 KING ST E KITCHENER Canada'
p2211
(F43.4493538
F-80.4878123
tp2212
sS'49 MAIN ST CAMBRIDGE Canada'
p2213
(F43.358704
F-80.3143407
tp2214
sS'1405 OTTAWA ST N N KITCHENER Canada'
p2215
(F43.4561236
F-80.4297315
tp2216
sS'104 KING ST S WATERLOO Canada'
p2217
(F43.4628577
F-80.52144830000002
tp2218
sS'1178 FISCHER-HALLMAN RD KITCHENER Canada'
p2219
(F43.406796
F-80.49965
tp2220
sS'174 MAIN ST E E CAMBRIDGE Canada'
p2221
(F43.3574407
F-80.308454
tp2222
sS'1143 BLEAMS RD MANNHEIM Canada'
p2223
(F43.3975671
F-80.5465679
tp2224
sS'7 - 480 HESPELER RD CAMBRIDGE Canada'
p2225
(F43.3980952
F-80.3261879
tp2226
sS'300 ST ANDREWS ST CAMBRIDGE Canada'
p2227
(F43.344302
F-80.331479
tp2228
sS'2435 EAGLE ST N CAMBRIDGE Canada'
p2229
(F43.4071964
F-80.33056529999999
tp2230
sS'704 EAGLE ST N CAMBRIDGE Canada'
p2231
(F43.404271
F-80.35454299999999
tp2232
sS'50 PARKLAND CRES KITCHENER Canada'
p2233
(F43.4147414
F-80.53631
tp2234
sS'1 WESTMOUNT RD N WATERLOO Canada'
p2235
(F43.459065
F-80.538201
tp2236
sS'A - 220 KING ST N WATERLOO Canada'
p2237
(F43.4752375
F-80.5243892
tp2238
sS'1094 GEDDES ST Hawkesville Canada'
p2239
(F43.5635503
F-80.6369732
tp2240
sS'10 - 525 HESPELER RD CAMBRIDGE Canada'
p2241
(F43.4012143
F-80.3251634
tp2242
sS'8A - 150 UNIVERSITY AVE W WATERLOO Canada'
p2243
(F43.4729458
F-80.5355568
tp2244
sS'9 - 160 UNIVERSITY AVE W WATERLOO Canada'
p2245
(F43.472285
F-80.5380519
tp2246
sS'55 NORTHFIELD DR E WATERLOO Canada'
p2247
(F43.5030496
F-80.5276804
tp2248
sS'211 - 525 BELMONT AVE W KITCHENER Canada'
p2249
(F43.4477629
F-80.5148391
tp2250
sS'10 - 255 KING ST N WATERLOO Canada'
p2251
(F43.4773047
F-80.5257335
tp2252
sS'333 KING ST E KITCHENER Canada'
p2253
(F43.44736320000001
F-80.4838105
tp2254
sS'118 - 501 KRUG ST KITCHENER Canada'
p2255
(F43.4563412
F-80.4616314
tp2256
sS'92 NORTHHUMBERLAND ST AYR Canada'
p2257
(F43.2900808
F-80.45621539999999
tp2258
sS'25 SPORTSWORLD CROSSING DR KITCHENER Canada'
p2259
(F43.4072109
F-80.39362500000001
tp2260
sS'14 CHARLES ST W KITCHENER Canada'
p2261
(F43.4497651
F-80.491637
tp2262
sS'2960 KINGSWAY DR KITCHENER Canada'
p2263
(F43.4246563
F-80.4390377
tp2264
sS"1206 SNYDER'S RD W WILMOT Canada"
p2265
(F43.4014418
F-80.68931909999999
tp2266
sS'120 PEEL ST NEW HAMBURG Canada'
p2267
(F43.3777779
F-80.70943
tp2268
sS'655 STRASBURG RD KITCHENER Canada'
p2269
(F43.4157557
F-80.47900469999999
tp2270
sS'21 ARTHUR ST N ELMIRA Canada'
p2271
(F43.600554
F-80.5561903
tp2272
sS'4287 KING ST E KITCHENER Canada'
p2273
(F43.4085748
F-80.3978011
tp2274
sS'315 ARTHUR ST S ELMIRA Canada'
p2275
(F43.5828074
F-80.56022279999999
tp2276
sS'2958 GREENFIELD RD North Dumfries Canada'
p2277
(F43.3013834
F-80.46245739999999
tp2278
sS'223 MILL ST KITCHENER Canada'
p2279
(F43.4376724
F-80.4879045
tp2280
sS'663 ERB ST W WATERLOO Canada'
p2281
(F43.44464019999999
F-80.5703846
tp2282
sS'9 KING ST N WATERLOO Canada'
p2283
(F43.46544189999999
F-80.5227318
tp2284
sS'316 - 355  HESPELER RD CAMBRIDGE Canada'
p2285
(F43.39311499999999
F-80.3196776
tp2286
sS'109 PARK ST KIchener Canada'
p2287
(F43.4488807
F-80.5035641
tp2288
sS'2900 HACKBART RD St Clements Canada'
p2289
(F43.54602269999999
F-80.70963689999999
tp2290
sS'55 HAMMET ST CAMBRIDGE Canada'
p2291
(F43.432568
F-80.29911899999999
tp2292
sS'9B - 668 ERB ST W WATERLOO Canada'
p2293
(F43.44619549999999
F-80.5748196
tp2294
sS'14 - 44 PINEBUSH RD CAMBRIDGE Canada'
p2295
(F43.408762
F-80.3242266
tp2296
sS'1333 WEBER ST E E KITCHENER Canada'
p2297
(F43.4328528
F-80.44287609999999
tp2298
sS'5 - 10 DOLMAN ST BRESLAU Canada'
p2299
(F43.4785835
F-80.4148479
tp2300
sS'28 NORTHUMBERLAND ST AYR Canada'
p2301
(F43.28606620000001
F-80.4516627
tp2302
sS'760 KING ST W KITCHENER Canada'
p2303
(F43.456117
F-80.5071406
tp2304
sS'450 KING ST E CAMBRIDGE Canada'
p2305
(F43.3972369
F-80.3611031
tp2306
sS'247 FRANKLIN ST N KITCHENER Canada'
p2307
(F43.4409855
F-80.44518169999999
tp2308
sS'30 WILLIAM ST W WATERLOO Canada'
p2309
(F43.460773
F-80.52265
tp2310
sS'11 - 373 BRIDGE ST W WATERLOO Canada'
p2311
(F43.4956711
F-80.5013463
tp2312
sS'22 BRIDGEPORT RD W WATERLOO Canada'
p2313
(F43.467703
F-80.5248359
tp2314
sS'1 - 657 KING ST E E KITCHENER Canada'
p2315
(F43.4448433
F-80.47867480000001
tp2316
sS'396 MORRISON RD KITCHENER Canada'
p2317
(F43.4359292
F-80.41829
tp2318
sS'85 COURTLAND AVE E KITCHENER Canada'
p2319
(F43.4440669
F-80.489705
tp2320
sS'40 PIONEER DR KITCHENER Canada'
p2321
(F43.3959515
F-80.43210169999999
tp2322
sS'8 - 383 ELGIN N N CAMBRIDGE Canada'
p2323
(F43.3791564
F-80.3065268
tp2324
sS'50 INVERNESS DR KITCHENER Canada'
p2325
(F43.4485416
F-80.5338836
tp2326
sS'155 SHELDON DR CAMBRIDGE Canada'
p2327
(F43.4026168
F-80.31204520000001
tp2328
sS'40 DICKSON ST CAMBRIDGE Canada'
p2329
(F43.3599464
F-80.31060579999999
tp2330
sS'104 STIRLING AVE S KITCHENER Canada'
p2331
(F43.444377
F-80.480638
tp2332
sS'30 GLAMIS RD CAMBRIDGE Canada'
p2333
(F43.38164
F-80.306202
tp2334
sS'2723 VICTORIA ST N Woolwich Canada'
p2335
(F43.498754
F-80.390445
tp2336
sS'650 HESPELER RD CAMBRIDGE Canada'
p2337
(F43.406732
F-80.3280189
tp2338
sS'517 VICTORIA ST S KITCHENER Canada'
p2339
(F43.4416878
F-80.51469589999999
tp2340
sS'29 WESTMOUNT RD S WATERLOO Canada'
p2341
(F43.4577128
F-80.5359146
tp2342
sS'575 CONESTOGA BLVD CAMBRIDGE Canada'
p2343
(F43.4084484
F-80.3207448
tp2344
sS'11 - 851 FISCHER HALLMAN RD KITCHENER Canada'
p2345
(F43.4424741
F-80.5447126
tp2346
sS'F - 220 KING ST N WATERLOO Canada'
p2347
(F43.4752375
F-80.5243892
tp2348
sS'65 NOECKER ST WATERLOO Canada'
p2349
(F43.4716121
F-80.520299
tp2350
sS'1228 NORTHFIELD DR E WOOLWICH Canada'
p2351
(F43.550687
F-80.5139729
tp2352
sS'105 OAK PARK DR WATERLOO Canada'
p2353
(F43.52053780000001
F-80.49708799999999
tp2354
sS'1025 OTTAWA ST N KITCHENER Canada'
p2355
(F43.4506661
F-80.443596
tp2356
sS'352 - 355 HESPELER RD CAMBRIDGE Canada'
p2357
(F43.39311499999999
F-80.3196776
tp2358
sS'2 - 720 WESTMOUNT RD E KITCHENER Canada'
p2359
(F43.4172052
F-80.50116
tp2360
sS'1128 RIFE RD NORTH DUMFRIES Canada'
p2361
(F43.3482209
F-80.4131566
tp2362
sS'8 - 851 FISCHER-HALLMAN RD KITCHENER Canada'
p2363
(F43.4424741
F-80.5447126
tp2364
sS'3 GRAND AVE S CAMBRIDGE Canada'
p2365
(F43.3584699
F-80.317329
tp2366
sS'800 OTTAWA ST S S KITCHENER Canada'
p2367
(F43.4230171
F-80.4887735
tp2368
sS'12 - 105 LEXINGTON RD WATERLOO Canada'
p2369
(F43.4868458
F-80.517072
tp2370
sS'4 - 465 PHILLIP ST WATERLOO Canada'
p2371
(F43.484427
F-80.5408376
tp2372
sS'E - 220 KING ST N WATERLOO Canada'
p2373
(F43.4752375
F-80.5243892
tp2374
sS'10 - 192 ACTIVA AVE KITCHENER Canada'
p2375
(F43.4058163
F-80.51279319999999
tp2376
sS'2 - 15 KING ST S WATERLOO Canada'
p2377
(F43.4646431
F-80.52257329999999
tp2378
sS'24 MADISON AVE S KITCHENER Canada'
p2379
(F43.44628100000001
F-80.482845
tp2380
sS'B,17C - 550 KING ST N WATERLOO Canada'
p2381
(F43.4977272
F-80.52832579999999
tp2382
sS'888 TRILLIUM DRIVE KITCHENER Canada'
p2383
(F43.4013046
F-80.48539889999999
tp2384
sS'2 - 215 BEVERLY ST CAMBRIDGE Canada'
p2385
(F43.3701423
F-80.30306279999999
tp2386
sS'300 SHEPHERD AVE CAMBRIDGE Canada'
p2387
(F43.42271059999999
F-80.3239794
tp2388
sS'C101 - 95 KING ST S WATERLOO Canada'
p2389
(F43.4630965
F-80.522174
tp2390
sS'61 AINSLIE ST S S CAMBRIDGE Canada'
p2391
(F43.356416
F-80.31347
tp2392
sS'4336 KING ST E KITCHENER Canada'
p2393
(F43.4077478
F-80.3962906
tp2394
sS'3 - 304 ST ANDREWS ST CAMBRIDGE Canada'
p2395
(F43.34396599999999
F-80.3321349
tp2396
sS'601 - 1187 FISCHER-HALLMAN RD KITCHENER Canada'
p2397
(F43.4071676
F-80.5024756
tp2398
sS'42 NORTHFIELD DR E WATERLOO Canada'
p2399
(F43.5031609
F-80.5303321
tp2400
sS'209 LEXINGTON RD WATERLOO Canada'
p2401
(F43.4923087
F-80.51302740000001
tp2402
sS'125 SALISBURY AVE CAMBRIDGE Canada'
p2403
(F43.35781
F-80.3272331
tp2404
sS'210 PRESTON PKY CAMBRIDGE Canada'
p2405
(F43.4000788
F-80.3777341
tp2406
sS'425 BINGEMANS CENTRE DR KITCHENER Canada'
p2407
(F43.4725065
F-80.4500712
tp2408
sS'4 - 93 ONTARIO ST S KITCHENER Canada'
p2409
(F43.44915169999999
F-80.4911535
tp2410
sS'8 - 525 HIGHLAND RD W KITCHENER Canada'
p2411
(F43.43516049999999
F-80.5151336
tp2412
sS'2 - 258 KING ST N WATERLOO Canada'
p2413
(F43.4770643
F-80.5247756
tp2414
sS'1472 KING ST E KITCHENER Canada'
p2415
(F43.43933759999999
F-80.4649544
tp2416
sS'260 BLEAMS RD KITCHENER Canada'
p2417
(F43.4111843
F-80.4591884
tp2418
sS'283 NORTHFIELD DR E WATERLOO Canada'
p2419
(F43.511547
F-80.521412
tp2420
sS'14 KING ST N WATERLOO Canada'
p2421
(F43.4655488
F-80.5222337
tp2422
sS'2 DUKE ST E E KITCHENER Canada'
p2423
(F43.4508052
F-80.4881219
tp2424
sS'205 FRANKLIN BLVD CAMBRIDGE Canada'
p2425
(F43.35561389999999
F-80.2863011
tp2426
sS'101 HOLIDAY INN DR CAMBRIDGE Canada'
p2427
(F43.4190244
F-80.3244199
tp2428
sS'5 - 73 HINCKS ST NEW HAMBURG Canada'
p2429
(F43.3845057
F-80.7160505
tp2430
sS'4 - 150 UNIVERSITY AVE W WATERLOO Canada'
p2431
(F43.4729458
F-80.5355568
tp2432
sS'2 - 253 KING ST N N WATERLOO Canada'
p2433
(F43.4766854
F-80.525453
tp2434
sS'1138 VICTORIA ST N KITCHENER Canada'
p2435
(F43.46707749999999
F-80.4565578
tp2436
sS'900 JAMIESON PKY CAMBRIDGE Canada'
p2437
(F43.4246734
F-80.2855609
tp2438
sS'875 HIGHLAND RD W KITCHENER Canada'
p2439
(F43.4297511
F-80.5264626
tp2440
sS'135 GATEWAY PARK DR KITCHENER Canada'
p2441
(F43.4064089
F-80.3884715
tp2442
sS'5168 AMENT LINE LINWOOD Canada'
p2443
(F43.5808316
F-80.7269926
tp2444
sS'102 - 65 DICKSON ST CAMBRIDGE Canada'
p2445
(F43.3597741
F-80.31199029999999
tp2446
sS'556 STIRLING AVE S KITCHENER Canada'
p2447
(F43.4352337
F-80.494784
tp2448
sS'1 - 970 FRANKLIN BLVD CAMBRIDGE Canada'
p2449
(F43.3923249
F-80.30410359999999
tp2450
sS'3 - 215 BEVERLY ST. CAMBRIDGE Canada'
p2451
(F43.3701423
F-80.30306279999999
tp2452
sS'491 HIGHLAND RD W KITCHENER Canada'
p2453
(F43.435479
F-80.51467500000001
tp2454
sS'103 - 1335 WEBER ST E KITCHENER Canada'
p2455
(F43.43331209999999
F-80.4417548
tp2456
sS'809 VICTORIA ST N KITCHENER Canada'
p2457
(F43.4624156
F-80.46872650000002
tp2458
sS'290 QUEEN ST S KITCHENER Canada'
p2459
(F43.44685
F-80.49270299999999
tp2460
sS'A5 - 1606 BATTLER RD KITCHENER Canada'
p2461
(F43.3964544
F-80.4620831
tp2462
sS'18 - 700 STRASBURG RD KITCHENER Canada'
p2463
(F43.413301
F-80.477723
tp2464
sS'256 WEBER ST N WATERLOO Canada'
p2465
(F43.478765
F-80.519886
tp2466
sS'2 - 5 MCLAREN AVE CAMBRIDGE Canada'
p2467
(F43.359644
F-80.2935135
tp2468
sS'54 AINSLIE ST S CAMBRIDGE Canada'
p2469
(F43.3568801
F-80.31388869999999
tp2470
sS'9 AINSLIE ST N CAMBRIDGE Canada'
p2471
(F43.359328
F-80.313356
tp2472
sS'2 - 75 DUNDAS ST N CAMBRIDGE Canada'
p2473
(F43.3586302
F-80.2914488
tp2474
sS'341 MARSLAND DR WATERLOO Canada'
p2475
(F43.4831528
F-80.5184484
tp2476
sS'5B - 65 UNIVERSITY AVE E WATERLOO Canada'
p2477
(F43.4774197
F-80.5204428
tp2478
sS'5 - 55 RAGLIN PL CAMBRIDGE Canada'
p2479
(F43.399925
F-80.30887
tp2480
sS'158 BRIDGEPORT RD E WATERLOO Canada'
p2481
(F43.4717707
F-80.5081388
tp2482
sS'99 STANLEY ST AYR Canada'
p2483
(F43.2855645
F-80.4495386
tp2484
sS'504 ALBERT ST WATERLOO Canada'
p2485
(F43.486507
F-80.5406299
tp2486
sS'479 MAIN ST E CAMBRIDGE Canada'
p2487
(F43.3580319
F-80.288266
tp2488
sS'1606 BATTLER RD KITCHENER Canada'
p2489
(F43.3964544
F-80.4620831
tp2490
sS'640 HILLVIEW RD CAMBRIDGE Canada'
p2491
(F43.393245
F-80.376578
tp2492
sS'1985 BEKE RD NORTH DUMFRIES Canada'
p2493
(F43.2989045
F-80.37274579999999
tp2494
sS'40 SPORTSWORLD DR KITCHENER Canada'
p2495
(F43.4081108
F-80.3938723
tp2496
sS'2 - 330 THE BOARDWALK WATERLOO Canada'
p2497
(F43.4379137
F-80.5631227
tp2498
sS'62 GRAND AVE N CAMBRIDGE Canada'
p2499
(F43.361703
F-80.317959
tp2500
sS'370 HESPELER RD CAMBRIDGE Canada'
p2501
(F43.3920685
F-80.3236258
tp2502
sS'103 ONTARIO ST S KITCHENER Canada'
p2503
(F43.4487692
F-80.4913546
tp2504
sS'27-25 BENJAMIN RD WOOLWICH Canada'
p2505
(F43.5093982
F-80.5545309
tp2506
sS'44 WOOLWICH ST KITCHENER Canada'
p2507
(F43.4833054
F-80.48439309999999
tp2508
sS'200 WATER ST N N CAMBRIDGE Canada'
p2509
(F43.3690641
F-80.3184464
tp2510
sS'1475 VICTORIA ST N KITCHENER Canada'
p2511
(F43.4714851
F-80.4405146
tp2512
sS'1020 OTTAWA ST N KITCHENER Canada'
p2513
(F43.4518269
F-80.4436882
tp2514
sS'D2 - 315 ARTHUR ST. S ELMIRA Canada'
p2515
(F43.5828074
F-80.56022279999999
tp2516
sS'677 BELMONT AVE W KITCHENER Canada'
p2517
(F43.4530846
F-80.5178779
tp2518
sS'216 MILL ST KITCHENER Canada'
p2519
(F43.438026
F-80.487909
tp2520
sS'135 DUNDAS ST N CAMBRIDGE Canada'
p2521
(F43.3604284
F-80.2970066
tp2522
sS'9 - 525 HIGHLAND RD W KITCHENER Canada'
p2523
(F43.43516049999999
F-80.5151336
tp2524
sS'B - 331 KING ST W KITCHENER Canada'
p2525
(F43.4518146
F-80.4953621
tp2526
sS'715 FISCHER-HALLMAN RD KITCHENER Canada'
p2527
(F43.4147959
F-80.5102921
tp2528
sS'A3 - 465 PHILLIP ST WATERLOO Canada'
p2529
(F43.484427
F-80.5408376
tp2530
sS'1212 CHRISTNER RD WILMOT Canada'
p2531
(F43.3964062
F-80.7171934
tp2532
sS'115 CHRISTOPHER DR CAMBRIDGE Canada'
p2533
(F43.3472549
F-80.298912
tp2534
sS'1531 EAGLE ST N CAMBRIDGE Canada'
p2535
(F43.404502
F-80.34661
tp2536
sS'851 FISCHER HALLMAN RD KITCHENER Canada'
p2537
(F43.4424741
F-80.5447126
tp2538
sS'L - 685 FISCHER-HALLMAN RD KITCHENER Canada'
p2539
(F43.41574689999999
F-80.5113586
tp2540
sS'145 VICTORIA ST S KITCHENER Canada'
p2541
(F43.44890119999999
F-80.5017836
tp2542
sS'100 RITTENHOUSE RD KITCHENER Canada'
p2543
(F43.4112366
F-80.48266389999999
tp2544
sS'1241 WEBER ST E KITCHENER Canada'
p2545
(F43.4331708
F-80.4449552
tp2546
sS'1170 TOWNLINE RD CAMBRIDGE Canada'
p2547
(F43.4418736
F-80.2916405
tp2548
sS'310 THE BOARDWALK WATERLOO Canada'
p2549
(F43.4362129
F-80.5601028
tp2550
sS'735 BELMONT AVE W KITCHENER Canada'
p2551
(F43.454437
F-80.51905699999999
tp2552
sS'5B - 1401 RIVER RD E KITCHENER Canada'
p2553
(F43.433952
F-80.428049
tp2554
sS'4 - 3589 BLEAMS RD NEW HAMBURG Canada'
p2555
(F43.3778266
F-80.6952434
tp2556
sS'2880 KING ST E KITCHENER Canada'
p2557
(F43.429885
F-80.43616
tp2558
sS'40 DUNDAS ST S CAMBRIDGE Canada'
p2559
(F43.3567898
F-80.2915909
tp2560
sS'1241 WEBER ST E E KITCHENER Canada'
p2561
(F43.4331708
F-80.4449552
tp2562
sS'261 HESPELER RD CAMBRIDGE Canada'
p2563
(F43.38673259999999
F-80.3209206
tp2564
sS'2 - 95 SAGINAW PKY CAMBRIDGE Canada'
p2565
(F43.391019
F-80.300614
tp2566
sS'219 LOUISA ST KITCHENER Canada'
p2567
(F43.4581103
F-80.4948402
tp2568
sS'1031 SNYDERS FLAT RD Bloomingdale Canada'
p2569
(F43.5108053
F-80.464878
tp2570
sS'8 - 315 LINCOLN RD WATERLOO Canada'
p2571
(F43.483655
F-80.50672
tp2572
sS'B10 - 619 WILD GINGER AVE WATERLOO Canada'
p2573
(F43.470258
F-80.5934295
tp2574
sS'576 KING ST N WATERLOO Canada'
p2575
(F43.5002968
F-80.5310095
tp2576
sS'3680 SPEEDSVILLE RD CAMBRIDGE Canada'
p2577
(F43.454321
F-80.35790899999999
tp2578
sS'2 - 594 HESPELER RD CAMBRIDGE Canada'
p2579
(F43.4045851
F-80.3270994
tp2580
sS'245 ACTIVA AVE KITCHENER Canada'
p2581
(F43.4063679
F-80.5158848
tp2582
sS'K6 - 550 KING ST N WATERLOO Canada'
p2583
(F43.4977272
F-80.52832579999999
tp2584
sS'108 UNIVERSITY AVE E WATERLOO Canada'
p2585
(F43.4790289
F-80.5179316
tp2586
sS'2057 VICTORIA ST N BRESLAU Canada'
p2587
(F43.4804036
F-80.4194389
tp2588
sS'221- 239 WEBER ST N WATERLOO Canada'
p2589
(F43.477305
F-80.519789
tp2590
sS'62 - 875 HIGHLAND RD W KITCHENER Canada'
p2591
(F43.4297511
F-80.5264626
tp2592
sS'1460 KING ST E CAMBRIDGE Canada'
p2593
(F43.38990099999999
F-80.3475629
tp2594
sS'17 - 500 FAIRWAY RD S KITCHENER Canada'
p2595
(F43.4209964
F-80.4469673
tp2596
sS'3 - 35 CHERRY BLOSSOM RD CAMBRIDGE Canada'
p2597
(F43.4123611
F-80.37569479999999
tp2598
sS'1458 WEBER ST. E KITCHENER Canada'
p2599
(F43.431633
F-80.43814499999999
tp2600
sS'800 JAMIESON PKY CAMBRIDGE Canada'
p2601
(F43.4225815
F-80.2868871
tp2602
sS'2132 GREENFIELD RD North Dumfries Canada'
p2603
(F43.3092696
F-80.41655779999999
tp2604
sS'2 - 30 GLAMIS RD CAMBRIDGE Canada'
p2605
(F43.38164
F-80.306202
tp2606
sS'55 WAYDOM DR North Dumfries Canada'
p2607
(F43.33508690000001
F-80.44366
tp2608
sS'352 KING ST W KITCHENER Canada'
p2609
(F43.4520551
F-80.4955604
tp2610
sS'101 QUEEN ST N KITCHENER Canada'
p2611
(F43.454274
F-80.48465999999999
tp2612
sS'A - 95 SAGINAW PKY CAMBRIDGE Canada'
p2613
(F43.391019
F-80.300614
tp2614
sS'390 SCOTT RD CAMBRIDGE Canada'
p2615
(F43.441373
F-80.3155021
tp2616
sS'10 QUEEN ST E CAMBRIDGE Canada'
p2617
(F43.4313776
F-80.3103696
tp2618
sS'3570 KING ST E KITCHENER Canada'
p2619
(F43.4243488
F-80.4137168
tp2620
sS'42 ELLIOTT ST CAMBRIDGE Canada'
p2621
(F43.353519
F-80.30996499999999
tp2622
sS'585 WEBER ST N WATERLOO Canada'
p2623
(F43.4965128
F-80.55074350000001
tp2624
sS'720 WESTMOUNT RD E KITCHENER Canada'
p2625
(F43.4172052
F-80.50116
tp2626
sS'13 MAIN ST CAMBRIDGE Canada'
p2627
(F43.358725
F-80.315111
tp2628
sS'1235 MARTIN CREEK RD WOOLWICH Canada'
p2629
(F43.5079588
F-80.5811202
tp2630
sS'324 - 355 HESPELER RD CAMBRIDGE Canada'
p2631
(F43.39406719999999
F-80.31984179999999
tp2632
sS'24 SNYDER AVE S S ELMIRA Canada'
p2633
(F43.5958722
F-80.5639425
tp2634
sS'29 - 170 UNIVERSITY AVE W WATERLOO Canada'
p2635
(F43.4718401
F-80.53888069999999
tp2636
sS'350 HESPELER RD CAMBRIDGE Canada'
p2637
(F43.3909279
F-80.3241591
tp2638
sS'F - 645 LAURELWOOD DR WATERLOO Canada'
p2639
(F43.4707272
F-80.5931956
tp2640
sS'28 BENTON ST KITCHENER Canada'
p2641
(F43.4483885
F-80.48839219999999
tp2642
sS'620 HESPELER RD CAMBRIDGE Canada'
p2643
(F43.405304
F-80.32779599999999
tp2644
sS'1097 WEBER ST E KITCHENER Canada'
p2645
(F43.4350966
F-80.44959419999999
tp2646
sS'160 DUNDAS ST S S CAMBRIDGE Canada'
p2647
(F43.355635
F-80.2897009
tp2648
sS'21 MCKAY ST CAMBRIDGE Canada'
p2649
(F43.3501441
F-80.3068088
tp2650
sS'A9 - 800 FRANKLIN BLVD CAMBRIDGE Canada'
p2651
(F43.3797211
F-80.299713
tp2652
sS'55 HUGO CRES KITCHENER Canada'
p2653
(F43.430415
F-80.49062699999999
tp2654
sS'B - 385 FREDERICK ST KITCHENER Canada'
p2655
(F43.4572411
F-80.47335249999999
tp2656
sS'510 HESPELER RD CAMBRIDGE Canada'
p2657
(F43.3994014
F-80.3262735
tp2658
sS'2351 FISCHER-HALLMAN RD NORTH DUMFRIES Canada'
p2659
(F43.3576998
F-80.4815064
tp2660
sS'2 - 203 LESTER ST WATERLOO Canada'
p2661
(F43.472243
F-80.53329649999999
tp2662
sS'725 BELMONT AVE W KITCHENER Canada'
p2663
(F43.45412200000001
F-80.51861099999999
tp2664
sS'153 KING ST W KITCHENER Canada'
p2665
(F43.4506296
F-80.4921038
tp2666
sS'1044 KNECHTEL CRT MANNHEIM Canada'
p2667
(F43.398899
F-80.54049429999999
tp2668
sS'61 KING ST N WATERLOO Canada'
p2669
(F43.46700209999999
F-80.5232373
tp2670
sS'2161 KINGSWAY DR KITCHENER Canada'
p2671
(F43.4344534
F-80.4529472
tp2672
sS'5 PARKSIDE DR ST. JACOBS Canada'
p2673
(F43.544557
F-80.55172999999999
tp2674
sS'61 WOOLWICH ST N BRESLAU Canada'
p2675
(F43.485053
F-80.41562499999999
tp2676
sS'D - 569 LANCASTER ST W KITCHENER Canada'
p2677
(F43.4796312
F-80.4844348
tp2678
sS'3 CHARLES ST W KITCHENER Canada'
p2679
(F43.44918260000001
F-80.49055
tp2680
sS'980 FRANKLIN BLVD CAMBRIDGE Canada'
p2681
(F43.39313689999999
F-80.3035905
tp2682
sS'2130 WEST RIVER RD NORTH DUMFRIES Canada'
p2683
(F43.2962712
F-80.3377464
tp2684
sS'1440 OTTAWA STREET S KITCHENER Canada'
p2685
(F43.4131855
F-80.5159786
tp2686
sS'238 WEBER ST N WATERLOO Canada'
p2687
(F43.4778434
F-80.51899639999999
tp2688
sS'F1 - 725 OTTAWA ST S KITCHENER Canada'
p2689
(F43.42381
F-80.48456499999999
tp2690
sS'475 KING ST N WATERLOO Canada'
p2691
(F43.4903373
F-80.52998339999999
tp2692
sS'43 QUEEN ST S KITCHENER Canada'
p2693
(F43.4492623
F-80.489531
tp2694
sS"18 SNYDER'S RD W BADEN Canada"
p2695
(F43.4044804
F-80.66984269999999
tp2696
sS'550 HIGHLAND RD W KITCHENER Canada'
p2697
(F43.4345769
F-80.5181389
tp2698
sS'318 - 25 FREDERICK ST KITCHENER Canada'
p2699
(F43.4494009
F-80.48642339999999
tp2700
sS'460 FREDERICK ST KITCHENER Canada'
p2701
(F43.4590104
F-80.4723491
tp2702
sS'1051 VICTORIA ST N KITCHENER Canada'
p2703
(F43.465197
F-80.459766
tp2704
sS'E - 2880 KING ST E KITCHENER Canada'
p2705
(F43.429885
F-80.43616
tp2706
sS'5 PRINCESS ST W WATERLOO Canada'
p2707
(F43.466627
F-80.523331
tp2708
sS'227 KING ST S WATERLOO Canada'
p2709
(F43.4579891
F-80.51705659999999
tp2710
sS'645 LAURELWOOD DR WATERLOO Canada'
p2711
(F43.4707272
F-80.5931956
tp2712
sS'251 QUEEN ST S KITCHENER Canada'
p2713
(F43.446917
F-80.49175400000001
tp2714
sS'A - 97 VICTORIA ST N KITCHENER Canada'
p2715
(F43.4545404
F-80.4941506
tp2716
sS'207 - 215 HIGHLAND RD W KITCHENER Canada'
p2717
(F43.4401506
F-80.5067663
tp2718
sS'561 HESPELER RD CAMBRIDGE Canada'
p2719
(F43.4035055
F-80.3263782
tp2720
sS'53 - 75 KING ST S WATERLOO Canada'
p2721
(F43.46360980000001
F-80.5235285
tp2722
sS'240 WESTMOUNT RD N WATERLOO Canada'
p2723
(F43.4688374
F-80.5475065
tp2724
sS'800 KING ST N WOOLWICH Canada'
p2725
(F43.5130451
F-80.550985
tp2726
sS'1 - 1401 RIVER RD KITCHENER Canada'
p2727
(F43.433952
F-80.428049
tp2728
sS'255 KING ST W KITCHENER Canada'
p2729
(F43.4513132
F-80.4936171
tp2730
sS'8 - 450 WESTHEIGHTS DR KITCHENER Canada'
p2731
(F43.417798
F-80.5356
tp2732
sS"1192 QUEEN'S BUSH RD WELLESLEY Canada"
p2733
(F43.477252
F-80.7642839
tp2734
sS'600 DOON VILLAGE RD KITCHENER Canada'
p2735
(F43.398491
F-80.446207
tp2736
sS'75 KING ST S waterloo Canada'
p2737
(F43.46360980000001
F-80.5235285
tp2738
sS'601 DOON VILLAGE RD KITCHENER Canada'
p2739
(F43.3982088
F-80.4478384
tp2740
sS'2960 KINGSWAY DRIVE KITCHENER Canada'
p2741
(F43.4246563
F-80.4390377
tp2742
sS'5 & 6 - 215 BEVERLY ST CAMBRIDGE Canada'
p2743
(F43.3701423
F-80.30306279999999
tp2744
sS'1321 COURTLAND AVE E KITCHENER Canada'
p2745
(F43.418889
F-80.454335
tp2746
sS'20 HOBSON ST CAMBRIDGE Canada'
p2747
(F43.3635585
F-80.3181682
tp2748
sS'971 VICTORIA ST N KITCHENER Canada'
p2749
(F43.46439100000001
F-80.4625049
tp2750
sS'650 CORONATION BLVD CAMBRIDGE Canada'
p2751
(F43.376918
F-80.3257567
tp2752
sS'265 WESTVALE DR WATERLOO Canada'
p2753
(F43.4450552
F-80.5597229
tp2754
sS'55 WATER ST N CAMBRIDGE Canada'
p2755
(F43.3605898
F-80.3150749
tp2756
sS'11 - 700 STRASBURG RD KITCHENER Canada'
p2757
(F43.413301
F-80.477723
tp2758
sS'65 BOULLEE ST NEW HAMBURG Canada'
p2759
(F43.3771856
F-80.706548
tp2760
sS'421 GREENBROOK DR KITCHENER Canada'
p2761
(F43.424718
F-80.510924
tp2762
sS'5 - 615 DAVENPORT RD WATERLOO Canada'
p2763
(F43.5035509
F-80.5294753
tp2764
sS'3121 KING ST E KITCHENER Canada'
p2765
(F43.4264652
F-80.42591949999999
tp2766
sS'21 WESTMOUNT RD W KITCHENER Canada'
p2767
(F43.434099
F-80.51091
tp2768
sS'720 NEW HAMPSHIRE ST WATERLOO Canada'
p2769
(F43.5157359
F-80.501891
tp2770
sS'685 FISCHER-HALLMAN RD KITCHENER Canada'
p2771
(F43.41574689999999
F-80.5113586
tp2772
sS'157 KING ST E KITCHENER Canada'
p2773
(F43.4486271
F-80.48661849999999
tp2774
sS'1801 QUEEN ST N WILMOT Canada'
p2775
(F43.3516971
F-80.5392359
tp2776
sS'367 THE COUNTRY WAY KITCHENER Canada'
p2777
(F43.407228
F-80.483457
tp2778
sS'1390 EAGLE ST N CAMBRIDGE Canada'
p2779
(F43.405024
F-80.34770499999999
tp2780
sS'105 HESPELER RD CAMBRIDGE Canada'
p2781
(F43.37696
F-80.3186456
tp2782
sS'221 KATHERINE ST N WOOLWICH Canada'
p2783
(F43.5701276
F-80.4658984
tp2784
sS'44 GRAND AVE S CAMBRIDGE Canada'
p2785
(F43.3566932
F-80.3177506
tp2786
sS'4 - 10 REGINA ST N WATERLOO Canada'
p2787
(F43.4659819
F-80.52112699999999
tp2788
sS'186 MAIN ST CAMBRIDGE Canada'
p2789
(F43.3571529
F-80.307485
tp2790
sS'1335 WITMER RD WILMOT Canada'
p2791
(F43.38270350000001
F-80.56100839999999
tp2792
sS'50 ADLER DR CAMBRIDGE Canada'
p2793
(F43.425888
F-80.290706
tp2794
sS'127 WATER ST N KITCHENER Canada'
p2795
(F43.4552634
F-80.492071
tp2796
sS'A2 - 1400 WEBER ST E KITCHENER Canada'
p2797
(F43.4331827
F-80.4390667
tp2798
sS'105 - 191 KING ST S WATERLOO Canada'
p2799
(F43.4597098
F-80.51851909999999
tp2800
sS'755 KING ST E E CAMBRIDGE Canada'
p2801
(F43.3953576
F-80.3573961
tp2802
sS'79 ALBERT ST WATERLOO Canada'
p2803
(F43.468283
F-80.526377
tp2804
sS'331 CRIMSON CRES WATERLOO Canada'
p2805
(F43.49415399999999
F-80.497653
tp2806
sS'79 ELGIN ST N CAMBRIDGE Canada'
p2807
(F43.36212099999999
F-80.298059
tp2808
sS'396 KING ST N WATERLOO Canada'
p2809
(F43.4842088
F-80.5261561
tp2810
sS'706 KING ST E CAMBRIDGE Canada'
p2811
(F43.3958042
F-80.3583098
tp2812
sS'100 CAROLINE ST S WATERLOO Canada'
p2813
(F43.46090909999999
F-80.52218909999999
tp2814
sS'7 QUEEN ST W CAMBRIDGE Canada'
p2815
(F43.4312311
F-80.3112314
tp2816
sS'38 PINEBUSH RD CAMBRIDGE Canada'
p2817
(F43.4087164
F-80.324499
tp2818
sS'925 KING ST E E KITCHENER Canada'
p2819
(F43.4425113
F-80.4745961
tp2820
sS'2 - 79 VICTORIA ST N KITCHENER Canada'
p2821
(F43.4540638
F-80.4949012
tp2822
sS'F9 - 550 KING ST N WATERLOO Canada'
p2823
(F43.4977272
F-80.52832579999999
tp2824
sS'111 WESTMOUNT RD S WATERLOO Canada'
p2825
(F43.4541391
F-80.528993
tp2826
sS'217 KING ST W KITCHENER Canada'
p2827
(F43.4511409
F-80.49320999999999
tp2828
sS'10 - 170 UNIVERSITY AVE W WATERLOO Canada'
p2829
(F43.4718401
F-80.53888069999999
tp2830
sS'426 HESPELER RD CAMBRIDGE Canada'
p2831
(F43.395487
F-80.324676
tp2832
sS'115 FOUNTAIN ST S CAMBRIDGE Canada'
p2833
(F43.399451
F-80.36951499999999
tp2834
sS'4500 KING ST E KITCHENER Canada'
p2835
(F43.405947
F-80.389624
tp2836
sS'46 KING ST N WATERLOO Canada'
p2837
(F43.4665802
F-80.52239159999999
tp2838
sS'1405 KING ST E KITCHENER Canada'
p2839
(F43.4397346
F-80.466707
tp2840
sS'21 KING ST N WATERLOO Canada'
p2841
(F43.46567539999999
F-80.5226553
tp2842
sS'109 MAIN ST CAMBRIDGE Canada'
p2843
(F43.3588601
F-80.31224499999999
tp2844
sS'395 KING ST N WATERLOO Canada'
p2845
(F43.484052
F-80.527084
tp2846
sS'2 - 2 KING ST N WATERLOO Canada'
p2847
(F43.4651991
F-80.52236370000001
tp2848
sS'740 OTTAWA ST S KITCHENER Canada'
p2849
(F43.4238267
F-80.4853943
tp2850
sS'F7 - 550 KING ST  N WATERLOO Canada'
p2851
(F43.4977272
F-80.52832579999999
tp2852
sS'2 - 295 THE BOARDWALK WATERLOO Canada'
p2853
(F43.4346621
F-80.5595178
tp2854
sS'101 - 18 CONCESSION ST CAMBRIDGE Canada'
p2855
(F43.35368889999999
F-80.3145483
tp2856
sS'170 UNIVERSITY AVE W WATERLOO Canada'
p2857
(F43.4718401
F-80.53888069999999
tp2858
sS'200 - 115 CHRISTOPHER DR CAMBRIDGE Canada'
p2859
(F43.3472549
F-80.298912
tp2860
sS'B1 - 535 SAGINAW PKWY CAMBRIDGE Canada'
p2861
(F43.3902495
F-80.28239529999999
tp2862
sS'3C - 1400 OTTAWA ST S KITCHENER Canada'
p2863
(F43.4156309
F-80.515221
tp2864
sS'22 FLORAPINE RD FLORADALE Canada'
p2865
(F43.6353072
F-80.5761246
tp2866
sS'2 - 281 KING ST W KITCHENER Canada'
p2867
(F43.45146
F-80.4944657
tp2868
sS'94 BRIDGEPORT RD E WATERLOO Canada'
p2869
(F43.4698791
F-80.515248
tp2870
sS'C - 16 AINSLIE ST S CAMBRIDGE Canada'
p2871
(F43.358189
F-80.31383029999999
tp2872
sS'50 BENJAMIN RD WOOLWICH Canada'
p2873
(F43.5064698
F-80.5554736
tp2874
sS'50 EBY ST S KITCHENER Canada'
p2875
(F43.4467267
F-80.4860317
tp2876
sS"515 LANG'S DR CAMBRIDGE Canada"
p2877
(F43.3985479
F-80.34314239999999
tp2878
sS'7 - 36 NORTHFIELD DR WATERLOO Canada'
p2879
(F43.5036327
F-80.53114289999999
tp2880
sS'3650 LOBSINGER LINE ST. CLEMENTS Canada'
p2881
(F43.523273
F-80.6547977
tp2882
sS'1 - 200 HIGHLAND RD W KITCHENER Canada'
p2883
(F43.441121
F-80.50670099999999
tp2884
sS'105 KING ST E KITCHENER Canada'
p2885
(F43.449028
F-80.487707
tp2886
sS'36 - 170 UNIVERSITY AVE W WATERLOO Canada'
p2887
(F43.4718401
F-80.53888069999999
tp2888
sS'476 DUNDAS ST N CAMBRIDGE Canada'
p2889
(F43.3711212
F-80.315128
tp2890
sS'5 - 15 KING ST S WATERLOO Canada'
p2891
(F43.4646431
F-80.52257329999999
tp2892
sS'76 MILL ST BADEN Canada'
p2893
(F43.4017576
F-80.66928329999999
tp2894
sS'6 - 165 FISHER MILLS RD CAMBRIDGE Canada'
p2895
(F43.435757
F-80.3200899
tp2896
sS'D1 - 580 HESPELER RD CAMBRIDGE Canada'
p2897
(F43.4031797
F-80.327388
tp2898
sS'19 - 160 UNIVERSITY AVE W WATERLOO Canada'
p2899
(F43.472285
F-80.5380519
tp2900
sS'67 ERB ST W WATERLOO Canada'
p2901
(F43.463645
F-80.525616
tp2902
sS'47 MADISON AVE S KITCHENER Canada'
p2903
(F43.4457758
F-80.4828982
tp2904
sS'200 DAVID BERGEY DR KITCHENER Canada'
p2905
(F43.4061686
F-80.5178092
tp2906
sS"39 SNYDER'S RD W BADEN Canada"
p2907
(F43.4033416
F-80.67053279999999
tp2908
sS'10 WATER ST ST. JACOBS Canada'
p2909
(F43.538888
F-80.551525
tp2910
sS'120 OTTAWA ST N KITCHENER Canada'
p2911
(F43.4440781
F-80.4689925
tp2912
sS'100 GATEWAY PARK DR KITCHENER Canada'
p2913
(F43.4075818
F-80.3881923
tp2914
sS'26 SCHOFIELD ST CAMBRIDGE Canada'
p2915
(F43.427198
F-80.316755
tp2916
sS'2192 FLORADALE RD FLORADALE Canada'
p2917
(F43.632479
F-80.58066579999999
tp2918
sS'3A - 200 LORRAINE AVE KITCHENER Canada'
p2919
(F43.460775
F-80.44052099999999
tp2920
sS'1291 NAFZIGER RD BADEN Canada'
p2921
(F43.3882087
F-80.682478
tp2922
sS'30 CHRISTOPHER DR CAMBRIDGE Canada'
p2923
(F43.352995
F-80.303085
tp2924
sS'2 - 15 SCOTT ST KITCHENER Canada'
p2925
(F43.4488896
F-80.4856988
tp2926
sS'700 FISCHER-HALLMAN RD KITCHENER Canada'
p2927
(F43.4153218
F-80.5098561
tp2928
sS'1206 CHEESE FACTORY RD NORTH DUMFRIES Canada'
p2929
(F43.329142
F-80.28594
tp2930
sS'746 OLD HESPELER RD CAMBRIDGE Canada'
p2931
(F43.4107862
F-80.3294421
tp2932
sS'4 - 79 VICTORIA ST N KITCHENER Canada'
p2933
(F43.4540638
F-80.4949012
tp2934
sS'103 - 875 HIGHLAND RD W KITCHENER Canada'
p2935
(F43.4297511
F-80.5264626
tp2936
sS'1105 KING ST E E KITCHENER Canada'
p2937
(F43.44157
F-80.47170899999999
tp2938
sS'15 - 65 UNIVERSITY AVE E WATERLOO Canada'
p2939
(F43.4774197
F-80.5204428
tp2940
sS'10731 - 2001 UNIVERSITY AVE E WATERLOO Canada'
p2941
(F43.5191718
F-80.50206709999999
tp2942
sS'333 CARWOOD AVE KITCHENER Canada'
p2943
(F43.432707
F-80.470668
tp2944
sS'31 KING ST N WATERLOO Canada'
p2945
(F43.46586300000001
F-80.522812
tp2946
sS'3 - 160 UNIVERSITY AVE W WATERLOO Canada'
p2947
(F43.472285
F-80.5380519
tp2948
sS'5 - 148 PEEL ST NEW HAMBURG Canada'
p2949
(F43.3772552
F-80.7092827
tp2950
sS'3521 BROADWAY ST HAWKESVILLE Canada'
p2951
(F43.563941
F-80.6395733
tp2952
sS'1680 BISHOP ST N CAMBRIDGE Canada'
p2953
(F43.397917
F-80.3050304
tp2954
sS'370 HIGHLAND RD W KITCHENER Canada'
p2955
(F43.4387033
F-80.51184719999999
tp2956
sS'1396 KING ST N ST. JACOBS Canada'
p2957
(F43.5386528
F-80.5536702
tp2958
sS'526 LANCASTER ST W W KITCHENER Canada'
p2959
(F43.4771595
F-80.4841758
tp2960
sS"18 QUEEN'S SQ CAMBRIDGE Canada"
p2961
(F43.3588105
F-80.3171342
tp2962
sS'15 - 421 GREENBROOK DRIVE KITCHENER Canada'
p2963
(F43.424718
F-80.510924
tp2964
sS'D4,5 - 50 WESTMOUNT RD N WATERLOO Canada'
p2965
(F43.46174800000001
F-80.5374452
tp2966
sS'2711 KINGSWAY DR KITCHENER Canada'
p2967
(F43.4306537
F-80.4412772
tp2968
sS'111 - 90 WEBER ST N WATERLOO Canada'
p2969
(F43.471808
F-80.513367
tp2970
sS'71 BANKSIDE DR KITCHENER Canada'
p2971
(F43.4316345
F-80.5285229
tp2972
sS'229 LEXINGTON RD WATERLOO Canada'
p2973
(F43.4926869
F-80.511673
tp2974
sS'14 WELLINGTON ST CAMBRIDGE Canada'
p2975
(F43.3594851
F-80.3116435
tp2976
sS'560 PARKSIDE DR WATERLOO Canada'
p2977
(F43.4959253
F-80.54359099999999
tp2978
sS'376 KING ST E KITCHENER Canada'
p2979
(F43.447336
F-80.483019
tp2980
sS'1 - 1166 QUEEN ST NEW DUNDEE Canada'
p2981
(F43.3499147
F-80.53772300000001
tp2982
sS'106 BRIDGEPORT RD E E WATERLOO Canada'
p2983
(F43.4699216
F-80.5154852
tp2984
sS'117 MAIN ST CAMBRIDGE Canada'
p2985
(F43.358753
F-80.312041
tp2986
sS'2485 EAGLE ST N N CAMBRIDGE Canada'
p2987
(F43.4074889
F-80.3286585
tp2988
sS'845 WEBER ST N WOOLWICH Canada'
p2989
(F43.508984
F-80.557858
tp2990
sS'93 GRAND AVE S CAMBRIDGE Canada'
p2991
(F43.353794
F-80.3173319
tp2992
sS'102 PEEL ST NEW HAMBURG Canada'
p2993
(F43.3780347
F-80.70928740000001
tp2994
sS'25 REUTER DR CAMBRIDGE Canada'
p2995
(F43.4115421
F-80.36798449999999
tp2996
sS'98 PEEL ST NEW HAMBURG Canada'
p2997
(F43.3780057
F-80.7094472
tp2998
sS'Unit # 8 - 1453 KING ST E CAMBRIDGE Canada'
p2999
(F43.3905147
F-80.34755419999999
tp3000
sS'408 KING ST E KITCHENER Canada'
p3001
(F43.44701
F-80.48243289999999
tp3002
sS'52 MAIN ST CAMBRIDGE Canada'
p3003
(F43.359119
F-80.31403600000002
tp3004
sS'685 ELGIN ST N CAMBRIDGE Canada'
p3005
(F43.3853821
F-80.3126008
tp3006
sS'B - 2784 VICTORIA ST N N WOOLWICH Canada'
p3007
(F43.5009159
F-80.387366
tp3008
sS'63 CHARLES ST E KITCHENER Canada'
p3009
(F43.4471907
F-80.4859773
tp3010
sS'31 KRIBS ST CAMBRIDGE Canada'
p3011
(F43.4305425
F-80.3055746
tp3012
sS'37 WELLINGTON ST CAMBRIDGE Canada'
p3013
(F43.3608027
F-80.31121809999999
tp3014
sS'323 KING ST E KITCHENER Canada'
p3015
(F43.4475029
F-80.4838659
tp3016
sS'450 COLUMBIA ST W WATERLOO Canada'
p3017
(F43.46846
F-80.56867849999999
tp3018
sS'140 - 600 LAURELWOOD DR WATERLOO Canada'
p3019
(F43.4715521
F-80.59288939999999
tp3020
sS'65 WATER ST N CAMBRIDGE Canada'
p3021
(F43.361075
F-80.315011
tp3022
sS"55 SNYDER'S RD W BADEN Canada"
p3023
(F43.403315
F-80.67123889999999
tp3024
sS'18 WELLINGTON ST CAMBRIDGE Canada'
p3025
(F43.3596458
F-80.31153669999999
tp3026
sS'5 - 255 KING ST N WATERLOO Canada'
p3027
(F43.4773047
F-80.5257335
tp3028
sS'1430 KING ST N ST. JACOBS Canada'
p3029
(F43.5401962
F-80.5531783
tp3030
sS'2899 KING ST E KITCHENER Canada'
p3031
(F43.4291964
F-80.436849
tp3032
sS'83 STANLEY ST AYR Canada'
p3033
(F43.28551299999999
F-80.45010090000001
tp3034
sS'710 BELMONT AVE W KITCHENER Canada'
p3035
(F43.4540231
F-80.5181218
tp3036
sS'130 WOODBINE AVE KITCENER Canada'
p3037
(F43.3880361
F-80.48521
tp3038
sS'6 - 255 KING ST N WATERLOO Canada'
p3039
(F43.4773047
F-80.5257335
tp3040
sS'42 AINSLIE ST N CAMBRIDGE Canada'
p3041
(F43.3602638
F-80.3137112
tp3042
sS'9 - 450 COLUMBIA ST W WATERLOO Canada'
p3043
(F43.46846
F-80.56867849999999
tp3044
sS'1400 HAMILTON ST CAMBRIDGE Canada'
p3045
(F43.3886298
F-80.3492986
tp3046
sS'100 PARK ST KITCHENER Canada'
p3047
(F43.449254
F-80.5026819
tp3048
sS'50 OTTAWA ST S S KITCHENER Canada'
p3049
(F43.441442
F-80.473534
tp3050
sS'500 KING ST N WATERLOO Canada'
p3051
(F43.4912502
F-80.5262249
tp3052
sS'E - 500 CAN-AMERA PKY CAMBRIDGE Canada'
p3053
(F43.4056165
F-80.2855354
tp3054
sS'979 KOSSUTH RD WOOLWICH Canada'
p3055
(F43.465165
F-80.334277
tp3056
sS'12 COVERED BRIDGE DR WEST MONTROSE Canada'
p3057
(F43.586575
F-80.482525
tp3058
sS'272 KING ST N WATERLOO Canada'
p3059
(F43.4777183
F-80.5248891
tp3060
sS'C - 168 MAIN ST NEW DUNDEE Canada'
p3061
(F43.35215789999999
F-80.5359749
tp3062
sS'9A - 350 HESPELER RD CAMBRIDGE Canada'
p3063
(F43.3909279
F-80.3241591
tp3064
sS'10 MELVILLE ST N CAMBRIDGE Canada'
p3065
(F43.3603285
F-80.31692009999999
tp3066
sS'26 SIMCOE ST CAMBRIDGE Canada'
p3067
(F43.3648675
F-80.3139443
tp3068
sS'5 - 374 HAMILTON RD NEW HAMBURG Canada'
p3069
(F43.3783804
F-80.6969426
tp3070
sS'2 - 140 MCGOVERN DR CAMBRIDGE Canada'
p3071
(F43.4104359
F-80.3324777
tp3072
sS'35 - 100 SHELDON DR CAMBRIDGE Canada'
p3073
(F43.403445
F-80.31855
tp3074
sS'140 WESTMOUNT RD N WATERLOO Canada'
p3075
(F43.4664042
F-80.54496449999999
tp3076
sS'385 FAIRWAY RD S KITCHENER Canada'
p3077
(F43.4203191
F-80.440929
tp3078
sS'3 QUEEN ST E E CAMBRIDGE Canada'
p3079
(F43.4314135
F-80.3107122
tp3080
sS'333 SPEEDSVILLE RD CAMBRIDGE Canada'
p3081
(F43.4086958
F-80.3486198
tp3082
sS'250 - 1170 FISCHER-HALLMAN RD KITCHENER Canada'
p3083
(F43.4073196
F-80.5003523
tp3084
sS'5 - 650 JAMIESON PKY CAMBRIDGE Canada'
p3085
(F43.4198867
F-80.29033900000002
tp3086
sS'B - 188 HIGHLAND RD W KITCHENER Canada'
p3087
(F43.440903
F-80.505832
tp3088
sS'17 - 324 HIGHLAND RD W KITCHENER Canada'
p3089
(F43.4392797
F-80.5101095
tp3090
sS'19 - 170 UNIVERSITY AVE W WATERLOO Canada'
p3091
(F43.4718401
F-80.53888069999999
tp3092
sS'65 PINEBUSH RD CAMBRIDGE Canada'
p3093
(F43.407231
F-80.3228333
tp3094
sS'769 KING ST E CAMBRIDGE Canada'
p3095
(F43.3952412
F-80.357177
tp3096
sS'899 VICTORIA ST N KITCHENER Canada'
p3097
(F43.4636905
F-80.4653565
tp3098
sS'564 KING ST E KITCHENER Canada'
p3099
(F43.4456076
F-80.4795175
tp3100
sS'209 PINEBUSH RD CAMBRIDGE Canada'
p3101
(F43.4109777
F-80.3089164
tp3102
sS'1408 KING ST N ST. JACOBS Canada'
p3103
(F43.5394374
F-80.5535307
tp3104
sS'175 HOLIDAY INN DR CAMBRIDGE Canada'
p3105
(F43.417234
F-80.32280399999999
tp3106
sS'1418 WEBER ST E KITCHENER Canada'
p3107
(F43.4324652
F-80.4389343
tp3108
sS'1005 OTTAWA ST N KITCHENER Canada'
p3109
(F43.4492215
F-80.44550749999999
tp3110
sS'1 - 255 HIGHVIEW DR KITCHENER Canada'
p3111
(F43.4145888
F-80.5522285
tp3112
sS'85 KING ST W KITCHENER Canada'
p3113
(F43.4503024
F-80.4907659
tp3114
sS'217 LOUISA ST KITCHENER Canada'
p3115
(F43.458094
F-80.4948904
tp3116
sS'20 HELDMANN RD KITCHENER Canada'
p3117
(F43.4085656
F-80.3947659
tp3118
sS'25 BENJAMIN RD WOOLWICH Canada'
p3119
(F43.5093982
F-80.5545309
tp3120
sS'1075 BO-DE LANE WOOLWICH Canada'
p3121
(F43.5305413
F-80.5764825
tp3122
sS'107 - 55 ERB ST E WATERLOO Canada'
p3123
(F43.4655683
F-80.5188167
tp3124
sS'1193 FISCHER HALLMAN RD KITCHENER Canada'
p3125
(F43.403813
F-80.4973918
tp3126
sS'57 JUBILEE DR KITCHENER Canada'
p3127
(F43.4474716
F-80.49720529999999
tp3128
sS'580 HESPELER RD CAMBRIDGE Canada'
p3129
(F43.4031797
F-80.327388
tp3130
sS'25 CHALMERS ST S S CAMBRIDGE Canada'
p3131
(F43.354218
F-80.2972829
tp3132
sS'990 SPEEDSVILLE RD CAMBRIDGE Canada'
p3133
(F43.4189827
F-80.35309199999999
tp3134
sS'103 KING ST N WATERLOO Canada'
p3135
(F43.468749
F-80.523791
tp3136
sS'147 ELGIN ST N CAMBRIDGE Canada'
p3137
(F43.367603
F-80.29922619999999
tp3138
sS'145 LINCOLN RD WATERLOO Canada'
p3139
(F43.472139
F-80.510806
tp3140
sS'3589 BLEAMS RD NEW HAMBURG Canada'
p3141
(F43.3778266
F-80.6952434
tp3142
sS'40 PINEBUSH RD CAMBRIDGE Canada'
p3143
(F43.4114052
F-80.32436539999999
tp3144
sS'1 - 500 GLEN FORREST BLVD WATERLOO Canada'
p3145
(F43.4845455
F-80.55069730000001
tp3146
sS'5 - 258 KING ST N WATERLOO Canada'
p3147
(F43.4770643
F-80.5247756
tp3148
sS'3685 NAFZIGER RD WELLESLEY Canada'
p3149
(F43.4760397
F-80.764697
tp3150
sS'991 KING ST E CAMBRIDGE Canada'
p3151
(F43.393738
F-80.35384499999999
tp3152
sS'25 FREDERICK ST KITCHENER Canada'
p3153
(F43.4494009
F-80.48642339999999
tp3154
sS'B - 151 FREDERICK ST KITCHENER Canada'
p3155
(F43.452237
F-80.48417300000001
tp3156
sS'102 KING ST N WATERLOO Canada'
p3157
(F43.468801
F-80.52288
tp3158
sS'1441 KING ST N St.Jacobs Canada'
p3159
(F43.5406334
F-80.5536944
tp3160
sS'265 FROBISHER DR WATERLOO Canada'
p3161
(F43.51297599999999
F-80.5214699
tp3162
sS'740 SAGINAW PKY CAMBRIDGE Canada'
p3163
(F43.3935132
F-80.2788241
tp3164
sS'25 WATER ST N CAMBRIDGE Canada'
p3165
(F43.3596486
F-80.31492399999999
tp3166
sS'1011 NORTHUMBERLAND ST AYR Canada'
p3167
(F43.298675
F-80.46330189999999
tp3168
sS'59 KING ST N WATERLOO Canada'
p3169
(F43.466999
F-80.523219
tp3170
sS'460 HESPELER RD CAMBRIDGE Canada'
p3171
(F43.3968646
F-80.3246066
tp3172
sS'1 - 825 WEBER ST E KITCHENER Canada'
p3173
(F43.4379781
F-80.4591665
tp3174
sS'7215 COUNTY RD 51 ARISS Canada'
p3175
(F43.5776815
F-80.365584
tp3176
sS'3 - 200 HIGHLAND RD W KITCHENER Canada'
p3177
(F43.441121
F-80.50670099999999
tp3178
sS'3-10 WYMAN ST WATERLOO Canada'
p3179
(F43.5048375
F-80.5376895
tp3180
sS'31 - 170 UNIVERSITY AVE W WATERLOO Canada'
p3181
(F43.4718401
F-80.53888069999999
tp3182
sS'B-10 - 1400 OTTAWA ST S KITCHENER Canada'
p3183
(F43.4156309
F-80.515221
tp3184
sS'370 HIGHLAND RD W UNIT # 17-18 KITCHENER Canada'
p3185
(F43.4387033
F-80.51184719999999
tp3186
sS'262 KING ST N WATERLOO Canada'
p3187
(F43.4774441
F-80.5248692
tp3188
sS'22 CHURCH ST W ELMIRA Canada'
p3189
(F43.60039949999999
F-80.5589967
tp3190
sS'609 - 1187 FISCHER-HALLMAN RD KITCHENER Canada'
p3191
(F43.4071676
F-80.5024756
tp3192
sS'520 CHESAPEAKE DR WATERLOO Canada'
p3193
(F43.5072801
F-80.50671830000002
tp3194
sS'1303 MARYHILL RD MARYHILL Canada'
p3195
(F43.5346075
F-80.39062679999999
tp3196
sS'6 - 247 KING ST N WATERLOO Canada'
p3197
(F43.47627929999999
F-80.52560079999999
tp3198
sS'1A-573 KING ST N WATERLOO Canada'
p3199
(F43.5009311
F-80.53442749999999
tp3200
sS'271 KING ST W KITCHENER Canada'
p3201
(F43.4514794
F-80.4940984
tp3202
sS'4 - 373 BRIDGE ST W WATERLOO Canada'
p3203
(F43.4956711
F-80.5013463
tp3204
sS'100 QUEEN ST N KITCHENER Canada'
p3205
(F43.4538039
F-80.4861695
tp3206
sS'101 FATHER DAVID BAUER DR WATERLOO Canada'
p3207
(F43.4640928
F-80.53258799999999
tp3208
sS'70 BRANT RD S CAMBRIDGE Canada'
p3209
(F43.3549239
F-80.3229549
tp3210
sS'668 ERB ST W WATERLOO Canada'
p3211
(F43.44619549999999
F-80.5748196
tp3212
sS"6 - 1001 LANG'S DR CAMBRIDGE Canada"
p3213
(F43.4014774
F-80.3281903
tp3214
sS'100 ARNOLD ST KITCHENER Canada'
p3215
(F43.4677909
F-80.4844693
tp3216
sS'4 - 95 SAGINAW PKY CAMBRIDGE Canada'
p3217
(F43.391019
F-80.300614
tp3218
sS'85 WEBER ST W KITCHENER Canada'
p3219
(F43.4538736
F-80.4922923
tp3220
sS'1594 VICTORIA ST N KITCHENER Canada'
p3221
(F43.4739219
F-80.4359551
tp3222
sS'24 WESTMOUNT RD W KITCHENER Canada'
p3223
(F43.434416
F-80.50993799999999
tp3224
sS'7B - 250 DUNDAS ST S S CAMBRIDGE Canada'
p3225
(F43.35447600000001
F-80.2888099
tp3226
sS'1 - 1531 EAGLE ST N CAMBRIDGE Canada'
p3227
(F43.404502
F-80.34661
tp3228
sS'55 NORTHFIELD DR E E WATERLOO Canada'
p3229
(F43.5030496
F-80.5276804
tp3230
sS'105/106 - 855 KING ST E CAMBRIDGE Canada'
p3231
(F43.3945376
F-80.3558394
tp3232
sS'105 SHADE ST CAMBRIDGE Canada'
p3233
(F43.362934
F-80.30559099999999
tp3234
sS'1 - 730 FOUNTAIN ST N N CAMBRIDGE Canada'
p3235
(F43.4068694
F-80.375866
tp3236
sS'10 VICTORIA ST S KITCHENER Canada'
p3237
(F43.4528117
F-80.4990819
tp3238
sS'800 FRANKLIN BLVD CAMBRIDGE Canada'
p3239
(F43.3797211
F-80.299713
tp3240
sS'183 KING ST W KITCHENER Canada'
p3241
(F43.4510407
F-80.4924338
tp3242
sS'C - 590 KRAUS DR WATERLOO Canada'
p3243
(F43.5010395
F-80.5294364
tp3244
sS'63 GRAND AVE N CAMBRIDGE Canada'
p3245
(F43.3616942
F-80.3172618
tp3246
sS'465 AVENUE RD CAMBRIDGE Canada'
p3247
(F43.38241980000001
F-80.2888226
tp3248
sS'345 THE COUNTRY WAY KITCHENER Canada'
p3249
(F43.40753
F-80.481914
tp3250
sS'850 FOUNTAIN ST S CAMBRIDGE Canada'
p3251
(F43.3868299
F-80.3982499
tp3252
sS'201 - 330 FARMERS MARKET RD WOOLWICH Canada'
p3253
(F43.5108476
F-80.54969609999999
tp3254
sS'14 EBY ST N KITCHENER Canada'
p3255
(F43.44829
F-80.484335
tp3256
sS'120 BARNSWALLOW DR ELMIRA Canada'
p3257
(F43.5910142
F-80.5774237
tp3258
sS'148 PEEL ST NEW HAMBURG Canada'
p3259
(F43.3772552
F-80.7092827
tp3260
sS'4555 - 2960 KINGSWAY DR KITCHENER Canada'
p3261
(F43.4246563
F-80.4390377
tp3262
sS'K3 - 550 KING ST N WATERLOO Canada'
p3263
(F43.4977272
F-80.52832579999999
tp3264
sS'200 UNIVERSITY AVE W WATERLOO Canada'
p3265
(F43.4692268
F-80.5403525
tp3266
sS'147 ELGIN ST N N CAMBRIDGE Canada'
p3267
(F43.367603
F-80.29922619999999
tp3268
sS'3700 BEAVERDALE RD CAMBRIDGE Canada'
p3269
(F43.459135
F-80.3356809
tp3270
sS'187 KING ST S WATERLOO Canada'
p3271
(F43.4593947
F-80.5190295
tp3272
sS'500 GLEN FORREST BLVD WATERLOO Canada'
p3273
(F43.4845455
F-80.55069730000001
tp3274
sS'132 WESTMINSTER DR S CAMBRIDGE Canada'
p3275
(F43.3954439
F-80.3589102
tp3276
sS'27 - 700 STRASBURG RD KITCHENER Canada'
p3277
(F43.413301
F-80.477723
tp3278
sS'80 BLUEVALE STREET N WATERLOO Canada'
p3279
(F43.475564
F-80.500581
tp3280
sS'601 WELLINGTON ST N KITCHENER Canada'
p3281
(F43.4629168
F-80.4781345
tp3282
sS'10 - 725 OTTAWA ST S KITCHENER Canada'
p3283
(F43.42381
F-80.48456499999999
tp3284
sS'118 SHEA CRES KITCHENER Canada'
p3285
(F43.418468
F-80.49288399999999
tp3286
sS'638 BELMONT AVE W KITCHENER Canada'
p3287
(F43.4522411
F-80.51667979999999
tp3288
sS'12A - 248 STIRLING AVE S KITCHENER Canada'
p3289
(F43.4409271
F-80.4858998
tp3290
sS'384 KING ST N WATERLOO Canada'
p3291
(F43.483758
F-80.52602069999999
tp3292
sS'C17 - 550 KING ST N WATERLOO Canada'
p3293
(F43.4977272
F-80.52832579999999
tp3294
sS'297 VICTORIA ST N KITCHENER Canada'
p3295
(F43.4578449
F-80.48464969999999
tp3296
sS'659 KING ST E KITCHENER Canada'
p3297
(F43.444756
F-80.478465
tp3298
sS"7/8 - 1001 LANG'S DR CAMBRIDGE Canada"
p3299
(F43.4014774
F-80.3281903
tp3300
sS'2001 UNIVERSITY AVE E WATERLOO Canada'
p3301
(F43.5191718
F-80.50206709999999
tp3302
sS'1429 KING ST N N ST. JACOBS Canada'
p3303
(F43.5402679
F-80.55358009999999
tp3304
sS'24 GAUKEL ST KITCHENER Canada'
p3305
(F43.450409
F-80.4933159
tp3306
sS'D6 - 970 FRANKLIN BLVD CAMBRIDGE Canada'
p3307
(F43.3923249
F-80.30410359999999
tp3308
sS'1073 WITMER RD WILMOT Canada'
p3309
(F43.3843407
F-80.5446504
tp3310
sS'533 WEBER ST E KITCHENER Canada'
p3311
(F43.4438792
F-80.46724739999999
tp3312
sS'3 - 3589 BLEAMS RD NEW HAMBURG Canada'
p3313
(F43.3778266
F-80.6952434
tp3314
sS'2 - 150 WISSLER RD WATERLOO Canada'
p3315
(F43.505171
F-80.524968
tp3316
sS'101 HAZELGLEN DR KITCHENER Canada'
p3317
(F43.4399243
F-80.5270231
tp3318
sS'400 PHILLIP ST WATERLOO Canada'
p3319
(F43.478919
F-80.54121099999999
tp3320
sS'19 - 561 HESPELER RD CAMBRIDGE Canada'
p3321
(F43.4032795
F-80.3255049
tp3322
sS'13 - 450 ERB ST W WATERLOO Canada'
p3323
(F43.452243
F-80.555717
tp3324
sS'470 HIGHLAND RD W KITCHENER Canada'
p3325
(F43.4364457
F-80.5142211
tp3326
sS'140 MCGOVERN DR CAMBRIDGE Canada'
p3327
(F43.4104359
F-80.3324777
tp3328
sS'B - 427 BELMONT AVE W KITCHENER Canada'
p3329
(F43.445549
F-80.513616
tp3330
sS'76 SCHNEIDER AVE KITCHENER Canada'
p3331
(F43.445315
F-80.49814150000002
tp3332
sS'35 PINEBUSH RD CAMBRIDGE Canada'
p3333
(F43.406592
F-80.326274
tp3334
sS'110 - 325 MAX BECKER DR KITCHENER Canada'
p3335
(F43.4048861
F-80.50085969999999
tp3336
sS"7 - 18 SNYDER'S RD W BADEN Canada"
p3337
(F43.4044804
F-80.66984269999999
tp3338
sS'432 QUEEN ST S KITCHENER Canada'
p3339
(F43.4451296
F-80.4942353
tp3340
sS'1316 DICKIE SETTLEMENT RD NORTH DUMFRIES Canada'
p3341
(F43.3694769
F-80.39646139999999
tp3342
sS'105 VICTORIA ST S KITCHENER Canada'
p3343
(F43.4500214
F-80.5005145
tp3344
sS'550 ROSE ST CAMBRIDGE Canada'
p3345
(F43.39134720000001
F-80.3652307
tp3346
sS'44 LANARK CRES KITCHENER Canada'
p3347
(F43.42477969999999
F-80.5348906
tp3348
sS'440 HESPELER RD CAMBRIDGE Canada'
p3349
(F43.3959114
F-80.32429929999999
tp3350
sS'409 MILL ST KITCHENER Canada'
p3351
(F43.434388
F-80.480098
tp3352
sS'383 ELGIN ST N CAMBRIDGE Canada'
p3353
(F43.3791564
F-80.3065268
tp3354
sS'3 - 321 WEBER ST N N WATERLOO Canada'
p3355
(F43.481037
F-80.523163
tp3356
sS'408 GAGE AVE KITCHENER Canada'
p3357
(F43.4449045
F-80.52158539999999
tp3358
sS'B8 - 583 KING ST N WATERLOO Canada'
p3359
(F43.5024001
F-80.5345074
tp3360
sS'11 - 665 COLBY DR WATERLOO Canada'
p3361
(F43.500864
F-80.536811
tp3362
sS'1055 FOUNTAIN ST N CAMBRIDGE Canada'
p3363
(F43.41896330000001
F-80.3692058
tp3364
sS'2960 KING ST E KITCHENER Canada'
p3365
(F43.4292224
F-80.433548
tp3366
sS'A - 100 MILL ST NEW HAMBURG Canada'
p3367
(F43.3798187
F-80.7103303
tp3368
sS'750 OTTAWA ST S KITCHENER Canada'
p3369
(F43.4237352
F-80.4875193
tp3370
sS'7 - 50 WESTMOUNT RD N WATERLOO Canada'
p3371
(F43.46174800000001
F-80.5374452
tp3372
sS'907 KING ST E CAMBRIDGE Canada'
p3373
(F43.394495
F-80.35546509999999
tp3374
sS'1144 COURTLAND AVE E KITCHENER Canada'
p3375
(F43.4220769
F-80.4602197
tp3376
sS'151 ZELLER DR KITCHENER Canada'
p3377
(F43.4527028
F-80.41925069999999
tp3378
sS'87 WATER ST N KITCHENER Canada'
p3379
(F43.4542357
F-80.49289279999999
tp3380
sS'9A - 1120 VICTORIA ST N KITCHENER Canada'
p3381
(F43.4668143
F-80.4586875
tp3382
s.